
main.elf:     file format elf32-littlearm

Sections:
Idx Name          Size      VMA       LMA       File off  Algn
  0 .isr_vector   000000c0  08000000  08000000  00001000  2**0
                  CONTENTS, ALLOC, LOAD, READONLY, DATA
  1 .text         00003780  080000c0  080000c0  000010c0  2**2
                  CONTENTS, ALLOC, LOAD, READONLY, CODE
  2 .rodata       00000094  08003840  08003840  00004840  2**2
                  CONTENTS, ALLOC, LOAD, READONLY, DATA
  3 .ARM.extab    00000030  080038d4  080038d4  000048d4  2**2
                  CONTENTS, ALLOC, LOAD, READONLY, DATA
  4 .ARM          000000c8  08003904  08003904  00004904  2**2
                  CONTENTS, ALLOC, LOAD, READONLY, DATA
  5 .preinit_array 00000000  080039cc  080039cc  00005060  2**0
                  CONTENTS, ALLOC, LOAD, DATA
  6 .init_array   00000004  080039cc  080039cc  000049cc  2**2
                  CONTENTS, ALLOC, LOAD, READONLY, DATA
  7 .fini_array   00000004  080039d0  080039d0  000049d0  2**2
                  CONTENTS, ALLOC, LOAD, READONLY, DATA
  8 .data         00000060  20000000  080039d4  00005000  2**2
                  CONTENTS, ALLOC, LOAD, DATA
  9 .bss          0000024c  20000060  08003a34  00005060  2**2
                  ALLOC
 10 ._user_heap_stack 00000604  200002ac  08003a34  000052ac  2**0
                  ALLOC
 11 .ARM.attributes 00000028  00000000  00000000  00005060  2**0
                  CONTENTS, READONLY
 12 .comment      00000043  00000000  00000000  00005088  2**0
                  CONTENTS, READONLY
 13 .debug_line   0000007d  00000000  00000000  000050cb  2**0
                  CONTENTS, READONLY, DEBUGGING, OCTETS
 14 .debug_line_str 00000050  00000000  00000000  00005148  2**0
                  CONTENTS, READONLY, DEBUGGING, OCTETS
 15 .debug_info   00000030  00000000  00000000  00005198  2**0
                  CONTENTS, READONLY, DEBUGGING, OCTETS
 16 .debug_abbrev 00000024  00000000  00000000  000051c8  2**0
                  CONTENTS, READONLY, DEBUGGING, OCTETS
 17 .debug_aranges 00000028  00000000  00000000  000051f0  2**3
                  CONTENTS, READONLY, DEBUGGING, OCTETS
 18 .debug_str    0000006c  00000000  00000000  00005218  2**0
                  CONTENTS, READONLY, DEBUGGING, OCTETS
 19 .debug_rnglists 00000019  00000000  00000000  00005284  2**0
                  CONTENTS, READONLY, DEBUGGING, OCTETS
 20 .debug_frame  0000070c  00000000  00000000  000052a0  2**2
                  CONTENTS, READONLY, DEBUGGING, OCTETS

Disassembly of section .text:

080000c0 <__do_global_dtors_aux>:
 80000c0:	b510      	push	{r4, lr}
 80000c2:	4c06      	ldr	r4, [pc, #24]	@ (80000dc <__do_global_dtors_aux+0x1c>)
 80000c4:	7823      	ldrb	r3, [r4, #0]
 80000c6:	2b00      	cmp	r3, #0
 80000c8:	d107      	bne.n	80000da <__do_global_dtors_aux+0x1a>
 80000ca:	4b05      	ldr	r3, [pc, #20]	@ (80000e0 <__do_global_dtors_aux+0x20>)
 80000cc:	2b00      	cmp	r3, #0
 80000ce:	d002      	beq.n	80000d6 <__do_global_dtors_aux+0x16>
 80000d0:	4804      	ldr	r0, [pc, #16]	@ (80000e4 <__do_global_dtors_aux+0x24>)
 80000d2:	e000      	b.n	80000d6 <__do_global_dtors_aux+0x16>
 80000d4:	bf00      	nop
 80000d6:	2301      	movs	r3, #1
 80000d8:	7023      	strb	r3, [r4, #0]
 80000da:	bd10      	pop	{r4, pc}
 80000dc:	20000060 	.word	0x20000060
 80000e0:	00000000 	.word	0x00000000
 80000e4:	08003828 	.word	0x08003828

080000e8 <frame_dummy>:
 80000e8:	4b04      	ldr	r3, [pc, #16]	@ (80000fc <frame_dummy+0x14>)
 80000ea:	b510      	push	{r4, lr}
 80000ec:	2b00      	cmp	r3, #0
 80000ee:	d003      	beq.n	80000f8 <frame_dummy+0x10>
 80000f0:	4903      	ldr	r1, [pc, #12]	@ (8000100 <frame_dummy+0x18>)
 80000f2:	4804      	ldr	r0, [pc, #16]	@ (8000104 <frame_dummy+0x1c>)
 80000f4:	e000      	b.n	80000f8 <frame_dummy+0x10>
 80000f6:	bf00      	nop
 80000f8:	bd10      	pop	{r4, pc}
 80000fa:	46c0      	nop			@ (mov r8, r8)
 80000fc:	00000000 	.word	0x00000000
 8000100:	20000064 	.word	0x20000064
 8000104:	08003828 	.word	0x08003828

08000108 <__udivsi3>:
 8000108:	2200      	movs	r2, #0
 800010a:	0843      	lsrs	r3, r0, #1
 800010c:	428b      	cmp	r3, r1
 800010e:	d374      	bcc.n	80001fa <__udivsi3+0xf2>
 8000110:	0903      	lsrs	r3, r0, #4
 8000112:	428b      	cmp	r3, r1
 8000114:	d35f      	bcc.n	80001d6 <__udivsi3+0xce>
 8000116:	0a03      	lsrs	r3, r0, #8
 8000118:	428b      	cmp	r3, r1
 800011a:	d344      	bcc.n	80001a6 <__udivsi3+0x9e>
 800011c:	0b03      	lsrs	r3, r0, #12
 800011e:	428b      	cmp	r3, r1
 8000120:	d328      	bcc.n	8000174 <__udivsi3+0x6c>
 8000122:	0c03      	lsrs	r3, r0, #16
 8000124:	428b      	cmp	r3, r1
 8000126:	d30d      	bcc.n	8000144 <__udivsi3+0x3c>
 8000128:	22ff      	movs	r2, #255	@ 0xff
 800012a:	0209      	lsls	r1, r1, #8
 800012c:	ba12      	rev	r2, r2
 800012e:	0c03      	lsrs	r3, r0, #16
 8000130:	428b      	cmp	r3, r1
 8000132:	d302      	bcc.n	800013a <__udivsi3+0x32>
 8000134:	1212      	asrs	r2, r2, #8
 8000136:	0209      	lsls	r1, r1, #8
 8000138:	d065      	beq.n	8000206 <__udivsi3+0xfe>
 800013a:	0b03      	lsrs	r3, r0, #12
 800013c:	428b      	cmp	r3, r1
 800013e:	d319      	bcc.n	8000174 <__udivsi3+0x6c>
 8000140:	e000      	b.n	8000144 <__udivsi3+0x3c>
 8000142:	0a09      	lsrs	r1, r1, #8
 8000144:	0bc3      	lsrs	r3, r0, #15
 8000146:	428b      	cmp	r3, r1
 8000148:	d301      	bcc.n	800014e <__udivsi3+0x46>
 800014a:	03cb      	lsls	r3, r1, #15
 800014c:	1ac0      	subs	r0, r0, r3
 800014e:	4152      	adcs	r2, r2
 8000150:	0b83      	lsrs	r3, r0, #14
 8000152:	428b      	cmp	r3, r1
 8000154:	d301      	bcc.n	800015a <__udivsi3+0x52>
 8000156:	038b      	lsls	r3, r1, #14
 8000158:	1ac0      	subs	r0, r0, r3
 800015a:	4152      	adcs	r2, r2
 800015c:	0b43      	lsrs	r3, r0, #13
 800015e:	428b      	cmp	r3, r1
 8000160:	d301      	bcc.n	8000166 <__udivsi3+0x5e>
 8000162:	034b      	lsls	r3, r1, #13
 8000164:	1ac0      	subs	r0, r0, r3
 8000166:	4152      	adcs	r2, r2
 8000168:	0b03      	lsrs	r3, r0, #12
 800016a:	428b      	cmp	r3, r1
 800016c:	d301      	bcc.n	8000172 <__udivsi3+0x6a>
 800016e:	030b      	lsls	r3, r1, #12
 8000170:	1ac0      	subs	r0, r0, r3
 8000172:	4152      	adcs	r2, r2
 8000174:	0ac3      	lsrs	r3, r0, #11
 8000176:	428b      	cmp	r3, r1
 8000178:	d301      	bcc.n	800017e <__udivsi3+0x76>
 800017a:	02cb      	lsls	r3, r1, #11
 800017c:	1ac0      	subs	r0, r0, r3
 800017e:	4152      	adcs	r2, r2
 8000180:	0a83      	lsrs	r3, r0, #10
 8000182:	428b      	cmp	r3, r1
 8000184:	d301      	bcc.n	800018a <__udivsi3+0x82>
 8000186:	028b      	lsls	r3, r1, #10
 8000188:	1ac0      	subs	r0, r0, r3
 800018a:	4152      	adcs	r2, r2
 800018c:	0a43      	lsrs	r3, r0, #9
 800018e:	428b      	cmp	r3, r1
 8000190:	d301      	bcc.n	8000196 <__udivsi3+0x8e>
 8000192:	024b      	lsls	r3, r1, #9
 8000194:	1ac0      	subs	r0, r0, r3
 8000196:	4152      	adcs	r2, r2
 8000198:	0a03      	lsrs	r3, r0, #8
 800019a:	428b      	cmp	r3, r1
 800019c:	d301      	bcc.n	80001a2 <__udivsi3+0x9a>
 800019e:	020b      	lsls	r3, r1, #8
 80001a0:	1ac0      	subs	r0, r0, r3
 80001a2:	4152      	adcs	r2, r2
 80001a4:	d2cd      	bcs.n	8000142 <__udivsi3+0x3a>
 80001a6:	09c3      	lsrs	r3, r0, #7
 80001a8:	428b      	cmp	r3, r1
 80001aa:	d301      	bcc.n	80001b0 <__udivsi3+0xa8>
 80001ac:	01cb      	lsls	r3, r1, #7
 80001ae:	1ac0      	subs	r0, r0, r3
 80001b0:	4152      	adcs	r2, r2
 80001b2:	0983      	lsrs	r3, r0, #6
 80001b4:	428b      	cmp	r3, r1
 80001b6:	d301      	bcc.n	80001bc <__udivsi3+0xb4>
 80001b8:	018b      	lsls	r3, r1, #6
 80001ba:	1ac0      	subs	r0, r0, r3
 80001bc:	4152      	adcs	r2, r2
 80001be:	0943      	lsrs	r3, r0, #5
 80001c0:	428b      	cmp	r3, r1
 80001c2:	d301      	bcc.n	80001c8 <__udivsi3+0xc0>
 80001c4:	014b      	lsls	r3, r1, #5
 80001c6:	1ac0      	subs	r0, r0, r3
 80001c8:	4152      	adcs	r2, r2
 80001ca:	0903      	lsrs	r3, r0, #4
 80001cc:	428b      	cmp	r3, r1
 80001ce:	d301      	bcc.n	80001d4 <__udivsi3+0xcc>
 80001d0:	010b      	lsls	r3, r1, #4
 80001d2:	1ac0      	subs	r0, r0, r3
 80001d4:	4152      	adcs	r2, r2
 80001d6:	08c3      	lsrs	r3, r0, #3
 80001d8:	428b      	cmp	r3, r1
 80001da:	d301      	bcc.n	80001e0 <__udivsi3+0xd8>
 80001dc:	00cb      	lsls	r3, r1, #3
 80001de:	1ac0      	subs	r0, r0, r3
 80001e0:	4152      	adcs	r2, r2
 80001e2:	0883      	lsrs	r3, r0, #2
 80001e4:	428b      	cmp	r3, r1
 80001e6:	d301      	bcc.n	80001ec <__udivsi3+0xe4>
 80001e8:	008b      	lsls	r3, r1, #2
 80001ea:	1ac0      	subs	r0, r0, r3
 80001ec:	4152      	adcs	r2, r2
 80001ee:	0843      	lsrs	r3, r0, #1
 80001f0:	428b      	cmp	r3, r1
 80001f2:	d301      	bcc.n	80001f8 <__udivsi3+0xf0>
 80001f4:	004b      	lsls	r3, r1, #1
 80001f6:	1ac0      	subs	r0, r0, r3
 80001f8:	4152      	adcs	r2, r2
 80001fa:	1a41      	subs	r1, r0, r1
 80001fc:	d200      	bcs.n	8000200 <__udivsi3+0xf8>
 80001fe:	4601      	mov	r1, r0
 8000200:	4152      	adcs	r2, r2
 8000202:	4610      	mov	r0, r2
 8000204:	4770      	bx	lr
 8000206:	e7ff      	b.n	8000208 <__udivsi3+0x100>
 8000208:	b501      	push	{r0, lr}
 800020a:	2000      	movs	r0, #0
 800020c:	f000 f806 	bl	800021c <__aeabi_idiv0>
 8000210:	bd02      	pop	{r1, pc}
 8000212:	46c0      	nop			@ (mov r8, r8)

08000214 <__aeabi_uidivmod>:
 8000214:	2900      	cmp	r1, #0
 8000216:	d0f7      	beq.n	8000208 <__udivsi3+0x100>
 8000218:	e776      	b.n	8000108 <__udivsi3>
 800021a:	4770      	bx	lr

0800021c <__aeabi_idiv0>:
 800021c:	4770      	bx	lr
 800021e:	46c0      	nop			@ (mov r8, r8)

08000220 <selfrel_offset31>:
 8000220:	6803      	ldr	r3, [r0, #0]
 8000222:	005a      	lsls	r2, r3, #1
 8000224:	d504      	bpl.n	8000230 <selfrel_offset31+0x10>
 8000226:	2280      	movs	r2, #128	@ 0x80
 8000228:	0612      	lsls	r2, r2, #24
 800022a:	4313      	orrs	r3, r2
 800022c:	18c0      	adds	r0, r0, r3
 800022e:	4770      	bx	lr
 8000230:	005b      	lsls	r3, r3, #1
 8000232:	085b      	lsrs	r3, r3, #1
 8000234:	e7fa      	b.n	800022c <selfrel_offset31+0xc>
 8000236:	46c0      	nop			@ (mov r8, r8)

08000238 <search_EIT_table>:
 8000238:	b5f8      	push	{r3, r4, r5, r6, r7, lr}
 800023a:	464e      	mov	r6, r9
 800023c:	4645      	mov	r5, r8
 800023e:	46de      	mov	lr, fp
 8000240:	4657      	mov	r7, sl
 8000242:	4680      	mov	r8, r0
 8000244:	4691      	mov	r9, r2
 8000246:	b5e0      	push	{r5, r6, r7, lr}
 8000248:	2900      	cmp	r1, #0
 800024a:	d02a      	beq.n	80002a2 <search_EIT_table+0x6a>
 800024c:	1e4b      	subs	r3, r1, #1
 800024e:	469b      	mov	fp, r3
 8000250:	469a      	mov	sl, r3
 8000252:	2700      	movs	r7, #0
 8000254:	4653      	mov	r3, sl
 8000256:	18fb      	adds	r3, r7, r3
 8000258:	0fdc      	lsrs	r4, r3, #31
 800025a:	18e4      	adds	r4, r4, r3
 800025c:	4643      	mov	r3, r8
 800025e:	1064      	asrs	r4, r4, #1
 8000260:	00e5      	lsls	r5, r4, #3
 8000262:	195e      	adds	r6, r3, r5
 8000264:	0030      	movs	r0, r6
 8000266:	f7ff ffdb 	bl	8000220 <selfrel_offset31>
 800026a:	45a3      	cmp	fp, r4
 800026c:	d010      	beq.n	8000290 <search_EIT_table+0x58>
 800026e:	4548      	cmp	r0, r9
 8000270:	d809      	bhi.n	8000286 <search_EIT_table+0x4e>
 8000272:	3508      	adds	r5, #8
 8000274:	0028      	movs	r0, r5
 8000276:	4440      	add	r0, r8
 8000278:	f7ff ffd2 	bl	8000220 <selfrel_offset31>
 800027c:	3801      	subs	r0, #1
 800027e:	4548      	cmp	r0, r9
 8000280:	d208      	bcs.n	8000294 <search_EIT_table+0x5c>
 8000282:	1c67      	adds	r7, r4, #1
 8000284:	e7e6      	b.n	8000254 <search_EIT_table+0x1c>
 8000286:	42a7      	cmp	r7, r4
 8000288:	d00b      	beq.n	80002a2 <search_EIT_table+0x6a>
 800028a:	1e63      	subs	r3, r4, #1
 800028c:	469a      	mov	sl, r3
 800028e:	e7e1      	b.n	8000254 <search_EIT_table+0x1c>
 8000290:	4548      	cmp	r0, r9
 8000292:	d8f8      	bhi.n	8000286 <search_EIT_table+0x4e>
 8000294:	0030      	movs	r0, r6
 8000296:	bcf0      	pop	{r4, r5, r6, r7}
 8000298:	46bb      	mov	fp, r7
 800029a:	46b2      	mov	sl, r6
 800029c:	46a9      	mov	r9, r5
 800029e:	46a0      	mov	r8, r4
 80002a0:	bdf8      	pop	{r3, r4, r5, r6, r7, pc}
 80002a2:	2600      	movs	r6, #0
 80002a4:	e7f6      	b.n	8000294 <search_EIT_table+0x5c>
 80002a6:	46c0      	nop			@ (mov r8, r8)

080002a8 <__gnu_unwind_get_pr_addr>:
 80002a8:	0003      	movs	r3, r0
 80002aa:	2801      	cmp	r0, #1
 80002ac:	d008      	beq.n	80002c0 <__gnu_unwind_get_pr_addr+0x18>
 80002ae:	2802      	cmp	r0, #2
 80002b0:	d004      	beq.n	80002bc <__gnu_unwind_get_pr_addr+0x14>
 80002b2:	2000      	movs	r0, #0
 80002b4:	2b00      	cmp	r3, #0
 80002b6:	d100      	bne.n	80002ba <__gnu_unwind_get_pr_addr+0x12>
 80002b8:	4802      	ldr	r0, [pc, #8]	@ (80002c4 <__gnu_unwind_get_pr_addr+0x1c>)
 80002ba:	4770      	bx	lr
 80002bc:	4802      	ldr	r0, [pc, #8]	@ (80002c8 <__gnu_unwind_get_pr_addr+0x20>)
 80002be:	e7fc      	b.n	80002ba <__gnu_unwind_get_pr_addr+0x12>
 80002c0:	4802      	ldr	r0, [pc, #8]	@ (80002cc <__gnu_unwind_get_pr_addr+0x24>)
 80002c2:	e7fa      	b.n	80002ba <__gnu_unwind_get_pr_addr+0x12>
 80002c4:	080009b5 	.word	0x080009b5
 80002c8:	080009cd 	.word	0x080009cd
 80002cc:	080009c1 	.word	0x080009c1

080002d0 <get_eit_entry>:
 80002d0:	b530      	push	{r4, r5, lr}
 80002d2:	4b21      	ldr	r3, [pc, #132]	@ (8000358 <get_eit_entry+0x88>)
 80002d4:	0005      	movs	r5, r0
 80002d6:	b083      	sub	sp, #12
 80002d8:	1e8c      	subs	r4, r1, #2
 80002da:	2b00      	cmp	r3, #0
 80002dc:	d026      	beq.n	800032c <get_eit_entry+0x5c>
 80002de:	0020      	movs	r0, r4
 80002e0:	a901      	add	r1, sp, #4
 80002e2:	e000      	b.n	80002e6 <get_eit_entry+0x16>
 80002e4:	bf00      	nop
 80002e6:	2800      	cmp	r0, #0
 80002e8:	d01d      	beq.n	8000326 <get_eit_entry+0x56>
 80002ea:	9901      	ldr	r1, [sp, #4]
 80002ec:	0022      	movs	r2, r4
 80002ee:	f7ff ffa3 	bl	8000238 <search_EIT_table>
 80002f2:	1e04      	subs	r4, r0, #0
 80002f4:	d017      	beq.n	8000326 <get_eit_entry+0x56>
 80002f6:	f7ff ff93 	bl	8000220 <selfrel_offset31>
 80002fa:	6863      	ldr	r3, [r4, #4]
 80002fc:	64a8      	str	r0, [r5, #72]	@ 0x48
 80002fe:	2b01      	cmp	r3, #1
 8000300:	d027      	beq.n	8000352 <get_eit_entry+0x82>
 8000302:	1d20      	adds	r0, r4, #4
 8000304:	2b00      	cmp	r3, #0
 8000306:	db22      	blt.n	800034e <get_eit_entry+0x7e>
 8000308:	f7ff ff8a 	bl	8000220 <selfrel_offset31>
 800030c:	2300      	movs	r3, #0
 800030e:	652b      	str	r3, [r5, #80]	@ 0x50
 8000310:	6803      	ldr	r3, [r0, #0]
 8000312:	64e8      	str	r0, [r5, #76]	@ 0x4c
 8000314:	2b00      	cmp	r3, #0
 8000316:	db0f      	blt.n	8000338 <get_eit_entry+0x68>
 8000318:	f7ff ff82 	bl	8000220 <selfrel_offset31>
 800031c:	0003      	movs	r3, r0
 800031e:	2000      	movs	r0, #0
 8000320:	612b      	str	r3, [r5, #16]
 8000322:	b003      	add	sp, #12
 8000324:	bd30      	pop	{r4, r5, pc}
 8000326:	2300      	movs	r3, #0
 8000328:	2009      	movs	r0, #9
 800032a:	e7f9      	b.n	8000320 <get_eit_entry+0x50>
 800032c:	4b0b      	ldr	r3, [pc, #44]	@ (800035c <get_eit_entry+0x8c>)
 800032e:	480c      	ldr	r0, [pc, #48]	@ (8000360 <get_eit_entry+0x90>)
 8000330:	1a1b      	subs	r3, r3, r0
 8000332:	10d9      	asrs	r1, r3, #3
 8000334:	9101      	str	r1, [sp, #4]
 8000336:	e7d9      	b.n	80002ec <get_eit_entry+0x1c>
 8000338:	0118      	lsls	r0, r3, #4
 800033a:	0f00      	lsrs	r0, r0, #28
 800033c:	f7ff ffb4 	bl	80002a8 <__gnu_unwind_get_pr_addr>
 8000340:	4242      	negs	r2, r0
 8000342:	4142      	adcs	r2, r0
 8000344:	0003      	movs	r3, r0
 8000346:	2009      	movs	r0, #9
 8000348:	4252      	negs	r2, r2
 800034a:	4010      	ands	r0, r2
 800034c:	e7e8      	b.n	8000320 <get_eit_entry+0x50>
 800034e:	2301      	movs	r3, #1
 8000350:	e7dd      	b.n	800030e <get_eit_entry+0x3e>
 8000352:	2300      	movs	r3, #0
 8000354:	2005      	movs	r0, #5
 8000356:	e7e3      	b.n	8000320 <get_eit_entry+0x50>
 8000358:	00000000 	.word	0x00000000
 800035c:	080039cc 	.word	0x080039cc
 8000360:	08003904 	.word	0x08003904

08000364 <restore_non_core_regs>:
 8000364:	6803      	ldr	r3, [r0, #0]
 8000366:	b510      	push	{r4, lr}
 8000368:	0004      	movs	r4, r0
 800036a:	07da      	lsls	r2, r3, #31
 800036c:	d405      	bmi.n	800037a <restore_non_core_regs+0x16>
 800036e:	079b      	lsls	r3, r3, #30
 8000370:	d50a      	bpl.n	8000388 <restore_non_core_regs+0x24>
 8000372:	3050      	adds	r0, #80	@ 0x50
 8000374:	f000 fca4 	bl	8000cc0 <__gnu_Unwind_Restore_VFP_D>
 8000378:	6823      	ldr	r3, [r4, #0]
 800037a:	075a      	lsls	r2, r3, #29
 800037c:	d50a      	bpl.n	8000394 <restore_non_core_regs+0x30>
 800037e:	071a      	lsls	r2, r3, #28
 8000380:	d50f      	bpl.n	80003a2 <restore_non_core_regs+0x3e>
 8000382:	06db      	lsls	r3, r3, #27
 8000384:	d515      	bpl.n	80003b2 <restore_non_core_regs+0x4e>
 8000386:	bd10      	pop	{r4, pc}
 8000388:	3050      	adds	r0, #80	@ 0x50
 800038a:	f000 fc95 	bl	8000cb8 <__gnu_Unwind_Restore_VFP>
 800038e:	6823      	ldr	r3, [r4, #0]
 8000390:	075a      	lsls	r2, r3, #29
 8000392:	d4f4      	bmi.n	800037e <restore_non_core_regs+0x1a>
 8000394:	0020      	movs	r0, r4
 8000396:	30d8      	adds	r0, #216	@ 0xd8
 8000398:	f000 fc96 	bl	8000cc8 <__gnu_Unwind_Restore_VFP_D_16_to_31>
 800039c:	6823      	ldr	r3, [r4, #0]
 800039e:	071a      	lsls	r2, r3, #28
 80003a0:	d4ef      	bmi.n	8000382 <restore_non_core_regs+0x1e>
 80003a2:	0020      	movs	r0, r4
 80003a4:	3059      	adds	r0, #89	@ 0x59
 80003a6:	30ff      	adds	r0, #255	@ 0xff
 80003a8:	f000 fc92 	bl	8000cd0 <__gnu_Unwind_Restore_WMMXD>
 80003ac:	6823      	ldr	r3, [r4, #0]
 80003ae:	06db      	lsls	r3, r3, #27
 80003b0:	d4e9      	bmi.n	8000386 <restore_non_core_regs+0x22>
 80003b2:	0020      	movs	r0, r4
 80003b4:	30d9      	adds	r0, #217	@ 0xd9
 80003b6:	30ff      	adds	r0, #255	@ 0xff
 80003b8:	f000 fc8e 	bl	8000cd8 <__gnu_Unwind_Restore_WMMXC>
 80003bc:	e7e3      	b.n	8000386 <restore_non_core_regs+0x22>
 80003be:	46c0      	nop			@ (mov r8, r8)

080003c0 <_Unwind_decode_typeinfo_ptr.constprop.0>:
 80003c0:	0003      	movs	r3, r0
 80003c2:	6800      	ldr	r0, [r0, #0]
 80003c4:	2800      	cmp	r0, #0
 80003c6:	d000      	beq.n	80003ca <_Unwind_decode_typeinfo_ptr.constprop.0+0xa>
 80003c8:	18c0      	adds	r0, r0, r3
 80003ca:	4770      	bx	lr

080003cc <__gnu_unwind_24bit.isra.0>:
 80003cc:	2009      	movs	r0, #9
 80003ce:	4770      	bx	lr

080003d0 <_Unwind_DebugHook>:
 80003d0:	4770      	bx	lr
 80003d2:	46c0      	nop			@ (mov r8, r8)

080003d4 <unwind_phase2>:
 80003d4:	b570      	push	{r4, r5, r6, lr}
 80003d6:	0004      	movs	r4, r0
 80003d8:	000d      	movs	r5, r1
 80003da:	0020      	movs	r0, r4
 80003dc:	6c29      	ldr	r1, [r5, #64]	@ 0x40
 80003de:	f7ff ff77 	bl	80002d0 <get_eit_entry>
 80003e2:	2800      	cmp	r0, #0
 80003e4:	d111      	bne.n	800040a <unwind_phase2+0x36>
 80003e6:	6c2b      	ldr	r3, [r5, #64]	@ 0x40
 80003e8:	002a      	movs	r2, r5
 80003ea:	6163      	str	r3, [r4, #20]
 80003ec:	0021      	movs	r1, r4
 80003ee:	2001      	movs	r0, #1
 80003f0:	6923      	ldr	r3, [r4, #16]
 80003f2:	4798      	blx	r3
 80003f4:	2808      	cmp	r0, #8
 80003f6:	d0f0      	beq.n	80003da <unwind_phase2+0x6>
 80003f8:	2807      	cmp	r0, #7
 80003fa:	d106      	bne.n	800040a <unwind_phase2+0x36>
 80003fc:	2000      	movs	r0, #0
 80003fe:	6c29      	ldr	r1, [r5, #64]	@ 0x40
 8000400:	f7ff ffe6 	bl	80003d0 <_Unwind_DebugHook>
 8000404:	1d28      	adds	r0, r5, #4
 8000406:	f000 fc41 	bl	8000c8c <__restore_core_regs>
 800040a:	f003 f9b3 	bl	8003774 <abort>
 800040e:	46c0      	nop			@ (mov r8, r8)

08000410 <unwind_phase2_forced>:
 8000410:	b5f0      	push	{r4, r5, r6, r7, lr}
 8000412:	4647      	mov	r7, r8
 8000414:	46ce      	mov	lr, r9
 8000416:	b580      	push	{r7, lr}
 8000418:	4c2e      	ldr	r4, [pc, #184]	@ (80004d4 <unwind_phase2_forced+0xc4>)
 800041a:	6983      	ldr	r3, [r0, #24]
 800041c:	44a5      	add	sp, r4
 800041e:	68c7      	ldr	r7, [r0, #12]
 8000420:	0004      	movs	r4, r0
 8000422:	0015      	movs	r5, r2
 8000424:	3104      	adds	r1, #4
 8000426:	2240      	movs	r2, #64	@ 0x40
 8000428:	a803      	add	r0, sp, #12
 800042a:	4698      	mov	r8, r3
 800042c:	f003 f9f2 	bl	8003814 <memcpy>
 8000430:	2300      	movs	r3, #0
 8000432:	9302      	str	r3, [sp, #8]
 8000434:	e023      	b.n	800047e <unwind_phase2_forced+0x6e>
 8000436:	22f4      	movs	r2, #244	@ 0xf4
 8000438:	9b12      	ldr	r3, [sp, #72]	@ 0x48
 800043a:	0052      	lsls	r2, r2, #1
 800043c:	6163      	str	r3, [r4, #20]
 800043e:	a902      	add	r1, sp, #8
 8000440:	a87c      	add	r0, sp, #496	@ 0x1f0
 8000442:	f003 f9e7 	bl	8003814 <memcpy>
 8000446:	0021      	movs	r1, r4
 8000448:	0030      	movs	r0, r6
 800044a:	6923      	ldr	r3, [r4, #16]
 800044c:	aa7c      	add	r2, sp, #496	@ 0x1f0
 800044e:	4798      	blx	r3
 8000450:	9b8a      	ldr	r3, [sp, #552]	@ 0x228
 8000452:	0006      	movs	r6, r0
 8000454:	9314      	str	r3, [sp, #80]	@ 0x50
 8000456:	4643      	mov	r3, r8
 8000458:	9301      	str	r3, [sp, #4]
 800045a:	ab02      	add	r3, sp, #8
 800045c:	9300      	str	r3, [sp, #0]
 800045e:	0022      	movs	r2, r4
 8000460:	0023      	movs	r3, r4
 8000462:	0029      	movs	r1, r5
 8000464:	2001      	movs	r0, #1
 8000466:	47b8      	blx	r7
 8000468:	2800      	cmp	r0, #0
 800046a:	d129      	bne.n	80004c0 <unwind_phase2_forced+0xb0>
 800046c:	22f4      	movs	r2, #244	@ 0xf4
 800046e:	a97c      	add	r1, sp, #496	@ 0x1f0
 8000470:	0052      	lsls	r2, r2, #1
 8000472:	a802      	add	r0, sp, #8
 8000474:	f003 f9ce 	bl	8003814 <memcpy>
 8000478:	2500      	movs	r5, #0
 800047a:	2e08      	cmp	r6, #8
 800047c:	d11e      	bne.n	80004bc <unwind_phase2_forced+0xac>
 800047e:	0020      	movs	r0, r4
 8000480:	9912      	ldr	r1, [sp, #72]	@ 0x48
 8000482:	f7ff ff25 	bl	80002d0 <get_eit_entry>
 8000486:	3509      	adds	r5, #9
 8000488:	4681      	mov	r9, r0
 800048a:	b2ee      	uxtb	r6, r5
 800048c:	2800      	cmp	r0, #0
 800048e:	d0d2      	beq.n	8000436 <unwind_phase2_forced+0x26>
 8000490:	9b10      	ldr	r3, [sp, #64]	@ 0x40
 8000492:	2110      	movs	r1, #16
 8000494:	9314      	str	r3, [sp, #80]	@ 0x50
 8000496:	4643      	mov	r3, r8
 8000498:	9301      	str	r3, [sp, #4]
 800049a:	ab02      	add	r3, sp, #8
 800049c:	9300      	str	r3, [sp, #0]
 800049e:	0022      	movs	r2, r4
 80004a0:	0023      	movs	r3, r4
 80004a2:	2001      	movs	r0, #1
 80004a4:	4331      	orrs	r1, r6
 80004a6:	47b8      	blx	r7
 80004a8:	2800      	cmp	r0, #0
 80004aa:	d109      	bne.n	80004c0 <unwind_phase2_forced+0xb0>
 80004ac:	4648      	mov	r0, r9
 80004ae:	23f7      	movs	r3, #247	@ 0xf7
 80004b0:	009b      	lsls	r3, r3, #2
 80004b2:	449d      	add	sp, r3
 80004b4:	bcc0      	pop	{r6, r7}
 80004b6:	46b9      	mov	r9, r7
 80004b8:	46b0      	mov	r8, r6
 80004ba:	bdf0      	pop	{r4, r5, r6, r7, pc}
 80004bc:	2e07      	cmp	r6, #7
 80004be:	d002      	beq.n	80004c6 <unwind_phase2_forced+0xb6>
 80004c0:	2309      	movs	r3, #9
 80004c2:	4699      	mov	r9, r3
 80004c4:	e7f2      	b.n	80004ac <unwind_phase2_forced+0x9c>
 80004c6:	0028      	movs	r0, r5
 80004c8:	9912      	ldr	r1, [sp, #72]	@ 0x48
 80004ca:	f7ff ff81 	bl	80003d0 <_Unwind_DebugHook>
 80004ce:	a803      	add	r0, sp, #12
 80004d0:	f000 fbdc 	bl	8000c8c <__restore_core_regs>
 80004d4:	fffffc24 	.word	0xfffffc24

080004d8 <_Unwind_GetCFA>:
 80004d8:	6c80      	ldr	r0, [r0, #72]	@ 0x48
 80004da:	4770      	bx	lr

080004dc <__gnu_Unwind_RaiseException>:
 80004dc:	b570      	push	{r4, r5, r6, lr}
 80004de:	6bcb      	ldr	r3, [r1, #60]	@ 0x3c
 80004e0:	b0fa      	sub	sp, #488	@ 0x1e8
 80004e2:	0005      	movs	r5, r0
 80004e4:	640b      	str	r3, [r1, #64]	@ 0x40
 80004e6:	000e      	movs	r6, r1
 80004e8:	2240      	movs	r2, #64	@ 0x40
 80004ea:	3104      	adds	r1, #4
 80004ec:	a801      	add	r0, sp, #4
 80004ee:	f003 f991 	bl	8003814 <memcpy>
 80004f2:	2301      	movs	r3, #1
 80004f4:	425b      	negs	r3, r3
 80004f6:	9300      	str	r3, [sp, #0]
 80004f8:	e006      	b.n	8000508 <__gnu_Unwind_RaiseException+0x2c>
 80004fa:	466a      	mov	r2, sp
 80004fc:	0029      	movs	r1, r5
 80004fe:	692b      	ldr	r3, [r5, #16]
 8000500:	4798      	blx	r3
 8000502:	0004      	movs	r4, r0
 8000504:	2808      	cmp	r0, #8
 8000506:	d108      	bne.n	800051a <__gnu_Unwind_RaiseException+0x3e>
 8000508:	0028      	movs	r0, r5
 800050a:	9910      	ldr	r1, [sp, #64]	@ 0x40
 800050c:	f7ff fee0 	bl	80002d0 <get_eit_entry>
 8000510:	2800      	cmp	r0, #0
 8000512:	d0f2      	beq.n	80004fa <__gnu_Unwind_RaiseException+0x1e>
 8000514:	2009      	movs	r0, #9
 8000516:	b07a      	add	sp, #488	@ 0x1e8
 8000518:	bd70      	pop	{r4, r5, r6, pc}
 800051a:	4668      	mov	r0, sp
 800051c:	f7ff ff22 	bl	8000364 <restore_non_core_regs>
 8000520:	2c06      	cmp	r4, #6
 8000522:	d1f7      	bne.n	8000514 <__gnu_Unwind_RaiseException+0x38>
 8000524:	0031      	movs	r1, r6
 8000526:	0028      	movs	r0, r5
 8000528:	f7ff ff54 	bl	80003d4 <unwind_phase2>

0800052c <__gnu_Unwind_ForcedUnwind>:
 800052c:	b510      	push	{r4, lr}
 800052e:	6182      	str	r2, [r0, #24]
 8000530:	6bda      	ldr	r2, [r3, #60]	@ 0x3c
 8000532:	60c1      	str	r1, [r0, #12]
 8000534:	641a      	str	r2, [r3, #64]	@ 0x40
 8000536:	0019      	movs	r1, r3
 8000538:	2200      	movs	r2, #0
 800053a:	f7ff ff69 	bl	8000410 <unwind_phase2_forced>
 800053e:	bd10      	pop	{r4, pc}

08000540 <__gnu_Unwind_Resume>:
 8000540:	6943      	ldr	r3, [r0, #20]
 8000542:	b570      	push	{r4, r5, r6, lr}
 8000544:	640b      	str	r3, [r1, #64]	@ 0x40
 8000546:	68c3      	ldr	r3, [r0, #12]
 8000548:	0004      	movs	r4, r0
 800054a:	000d      	movs	r5, r1
 800054c:	2b00      	cmp	r3, #0
 800054e:	d113      	bne.n	8000578 <__gnu_Unwind_Resume+0x38>
 8000550:	000a      	movs	r2, r1
 8000552:	6903      	ldr	r3, [r0, #16]
 8000554:	0001      	movs	r1, r0
 8000556:	2002      	movs	r0, #2
 8000558:	4798      	blx	r3
 800055a:	2807      	cmp	r0, #7
 800055c:	d005      	beq.n	800056a <__gnu_Unwind_Resume+0x2a>
 800055e:	2808      	cmp	r0, #8
 8000560:	d10f      	bne.n	8000582 <__gnu_Unwind_Resume+0x42>
 8000562:	0029      	movs	r1, r5
 8000564:	0020      	movs	r0, r4
 8000566:	f7ff ff35 	bl	80003d4 <unwind_phase2>
 800056a:	2000      	movs	r0, #0
 800056c:	6c29      	ldr	r1, [r5, #64]	@ 0x40
 800056e:	f7ff ff2f 	bl	80003d0 <_Unwind_DebugHook>
 8000572:	1d28      	adds	r0, r5, #4
 8000574:	f000 fb8a 	bl	8000c8c <__restore_core_regs>
 8000578:	2201      	movs	r2, #1
 800057a:	f7ff ff49 	bl	8000410 <unwind_phase2_forced>
 800057e:	f003 f8f9 	bl	8003774 <abort>
 8000582:	f003 f8f7 	bl	8003774 <abort>
 8000586:	46c0      	nop			@ (mov r8, r8)

08000588 <__gnu_Unwind_Resume_or_Rethrow>:
 8000588:	68c3      	ldr	r3, [r0, #12]
 800058a:	b510      	push	{r4, lr}
 800058c:	2b00      	cmp	r3, #0
 800058e:	d005      	beq.n	800059c <__gnu_Unwind_Resume_or_Rethrow+0x14>
 8000590:	6bcb      	ldr	r3, [r1, #60]	@ 0x3c
 8000592:	2200      	movs	r2, #0
 8000594:	640b      	str	r3, [r1, #64]	@ 0x40
 8000596:	f7ff ff3b 	bl	8000410 <unwind_phase2_forced>
 800059a:	bd10      	pop	{r4, pc}
 800059c:	f7ff ff9e 	bl	80004dc <__gnu_Unwind_RaiseException>
 80005a0:	e7fb      	b.n	800059a <__gnu_Unwind_Resume_or_Rethrow+0x12>
 80005a2:	46c0      	nop			@ (mov r8, r8)

080005a4 <_Unwind_Complete>:
 80005a4:	4770      	bx	lr
 80005a6:	46c0      	nop			@ (mov r8, r8)

080005a8 <_Unwind_DeleteException>:
 80005a8:	6883      	ldr	r3, [r0, #8]
 80005aa:	0001      	movs	r1, r0
 80005ac:	b510      	push	{r4, lr}
 80005ae:	2b00      	cmp	r3, #0
 80005b0:	d001      	beq.n	80005b6 <_Unwind_DeleteException+0xe>
 80005b2:	2001      	movs	r0, #1
 80005b4:	4798      	blx	r3
 80005b6:	bd10      	pop	{r4, pc}

080005b8 <_Unwind_VRS_Get>:
 80005b8:	2904      	cmp	r1, #4
 80005ba:	d808      	bhi.n	80005ce <_Unwind_VRS_Get+0x16>
 80005bc:	2902      	cmp	r1, #2
 80005be:	d81a      	bhi.n	80005f6 <_Unwind_VRS_Get+0x3e>
 80005c0:	2900      	cmp	r1, #0
 80005c2:	d00b      	beq.n	80005dc <_Unwind_VRS_Get+0x24>
 80005c4:	1e48      	subs	r0, r1, #1
 80005c6:	1e43      	subs	r3, r0, #1
 80005c8:	4198      	sbcs	r0, r3
 80005ca:	3001      	adds	r0, #1
 80005cc:	4770      	bx	lr
 80005ce:	2905      	cmp	r1, #5
 80005d0:	d10f      	bne.n	80005f2 <_Unwind_VRS_Get+0x3a>
 80005d2:	6c43      	ldr	r3, [r0, #68]	@ 0x44
 80005d4:	9a00      	ldr	r2, [sp, #0]
 80005d6:	2000      	movs	r0, #0
 80005d8:	6013      	str	r3, [r2, #0]
 80005da:	e7f7      	b.n	80005cc <_Unwind_VRS_Get+0x14>
 80005dc:	2b00      	cmp	r3, #0
 80005de:	d108      	bne.n	80005f2 <_Unwind_VRS_Get+0x3a>
 80005e0:	2a0f      	cmp	r2, #15
 80005e2:	d806      	bhi.n	80005f2 <_Unwind_VRS_Get+0x3a>
 80005e4:	0092      	lsls	r2, r2, #2
 80005e6:	1880      	adds	r0, r0, r2
 80005e8:	6843      	ldr	r3, [r0, #4]
 80005ea:	9a00      	ldr	r2, [sp, #0]
 80005ec:	2000      	movs	r0, #0
 80005ee:	6013      	str	r3, [r2, #0]
 80005f0:	e7ec      	b.n	80005cc <_Unwind_VRS_Get+0x14>
 80005f2:	2002      	movs	r0, #2
 80005f4:	e7ea      	b.n	80005cc <_Unwind_VRS_Get+0x14>
 80005f6:	2001      	movs	r0, #1
 80005f8:	e7e8      	b.n	80005cc <_Unwind_VRS_Get+0x14>
 80005fa:	46c0      	nop			@ (mov r8, r8)

080005fc <_Unwind_GetGR>:
 80005fc:	b500      	push	{lr}
 80005fe:	b085      	sub	sp, #20
 8000600:	ab03      	add	r3, sp, #12
 8000602:	000a      	movs	r2, r1
 8000604:	9300      	str	r3, [sp, #0]
 8000606:	2100      	movs	r1, #0
 8000608:	2300      	movs	r3, #0
 800060a:	f7ff ffd5 	bl	80005b8 <_Unwind_VRS_Get>
 800060e:	9803      	ldr	r0, [sp, #12]
 8000610:	b005      	add	sp, #20
 8000612:	bd00      	pop	{pc}

08000614 <_Unwind_VRS_Set>:
 8000614:	2904      	cmp	r1, #4
 8000616:	d808      	bhi.n	800062a <_Unwind_VRS_Set+0x16>
 8000618:	2902      	cmp	r1, #2
 800061a:	d81a      	bhi.n	8000652 <_Unwind_VRS_Set+0x3e>
 800061c:	2900      	cmp	r1, #0
 800061e:	d00b      	beq.n	8000638 <_Unwind_VRS_Set+0x24>
 8000620:	1e48      	subs	r0, r1, #1
 8000622:	1e43      	subs	r3, r0, #1
 8000624:	4198      	sbcs	r0, r3
 8000626:	3001      	adds	r0, #1
 8000628:	4770      	bx	lr
 800062a:	2905      	cmp	r1, #5
 800062c:	d10f      	bne.n	800064e <_Unwind_VRS_Set+0x3a>
 800062e:	9b00      	ldr	r3, [sp, #0]
 8000630:	681b      	ldr	r3, [r3, #0]
 8000632:	6443      	str	r3, [r0, #68]	@ 0x44
 8000634:	2000      	movs	r0, #0
 8000636:	e7f7      	b.n	8000628 <_Unwind_VRS_Set+0x14>
 8000638:	2b00      	cmp	r3, #0
 800063a:	d108      	bne.n	800064e <_Unwind_VRS_Set+0x3a>
 800063c:	2a0f      	cmp	r2, #15
 800063e:	d806      	bhi.n	800064e <_Unwind_VRS_Set+0x3a>
 8000640:	9b00      	ldr	r3, [sp, #0]
 8000642:	0092      	lsls	r2, r2, #2
 8000644:	681b      	ldr	r3, [r3, #0]
 8000646:	1880      	adds	r0, r0, r2
 8000648:	6043      	str	r3, [r0, #4]
 800064a:	2000      	movs	r0, #0
 800064c:	e7ec      	b.n	8000628 <_Unwind_VRS_Set+0x14>
 800064e:	2002      	movs	r0, #2
 8000650:	e7ea      	b.n	8000628 <_Unwind_VRS_Set+0x14>
 8000652:	2001      	movs	r0, #1
 8000654:	e7e8      	b.n	8000628 <_Unwind_VRS_Set+0x14>
 8000656:	46c0      	nop			@ (mov r8, r8)

08000658 <_Unwind_SetGR>:
 8000658:	b500      	push	{lr}
 800065a:	b085      	sub	sp, #20
 800065c:	ab03      	add	r3, sp, #12
 800065e:	9203      	str	r2, [sp, #12]
 8000660:	9300      	str	r3, [sp, #0]
 8000662:	000a      	movs	r2, r1
 8000664:	2300      	movs	r3, #0
 8000666:	2100      	movs	r1, #0
 8000668:	f7ff ffd4 	bl	8000614 <_Unwind_VRS_Set>
 800066c:	b005      	add	sp, #20
 800066e:	bd00      	pop	{pc}

08000670 <__gnu_Unwind_Backtrace>:
 8000670:	b570      	push	{r4, r5, r6, lr}
 8000672:	4c19      	ldr	r4, [pc, #100]	@ (80006d8 <__gnu_Unwind_Backtrace+0x68>)
 8000674:	6bd3      	ldr	r3, [r2, #60]	@ 0x3c
 8000676:	44a5      	add	sp, r4
 8000678:	0005      	movs	r5, r0
 800067a:	6413      	str	r3, [r2, #64]	@ 0x40
 800067c:	000c      	movs	r4, r1
 800067e:	a817      	add	r0, sp, #92	@ 0x5c
 8000680:	1d11      	adds	r1, r2, #4
 8000682:	2240      	movs	r2, #64	@ 0x40
 8000684:	f003 f8c6 	bl	8003814 <memcpy>
 8000688:	2301      	movs	r3, #1
 800068a:	425b      	negs	r3, r3
 800068c:	9316      	str	r3, [sp, #88]	@ 0x58
 800068e:	e013      	b.n	80006b8 <__gnu_Unwind_Backtrace+0x48>
 8000690:	210c      	movs	r1, #12
 8000692:	a816      	add	r0, sp, #88	@ 0x58
 8000694:	466a      	mov	r2, sp
 8000696:	f7ff ffdf 	bl	8000658 <_Unwind_SetGR>
 800069a:	0021      	movs	r1, r4
 800069c:	a816      	add	r0, sp, #88	@ 0x58
 800069e:	47a8      	blx	r5
 80006a0:	2800      	cmp	r0, #0
 80006a2:	d10f      	bne.n	80006c4 <__gnu_Unwind_Backtrace+0x54>
 80006a4:	4669      	mov	r1, sp
 80006a6:	9b04      	ldr	r3, [sp, #16]
 80006a8:	aa16      	add	r2, sp, #88	@ 0x58
 80006aa:	3008      	adds	r0, #8
 80006ac:	4798      	blx	r3
 80006ae:	0006      	movs	r6, r0
 80006b0:	2805      	cmp	r0, #5
 80006b2:	d008      	beq.n	80006c6 <__gnu_Unwind_Backtrace+0x56>
 80006b4:	2809      	cmp	r0, #9
 80006b6:	d005      	beq.n	80006c4 <__gnu_Unwind_Backtrace+0x54>
 80006b8:	4668      	mov	r0, sp
 80006ba:	9926      	ldr	r1, [sp, #152]	@ 0x98
 80006bc:	f7ff fe08 	bl	80002d0 <get_eit_entry>
 80006c0:	2800      	cmp	r0, #0
 80006c2:	d0e5      	beq.n	8000690 <__gnu_Unwind_Backtrace+0x20>
 80006c4:	2609      	movs	r6, #9
 80006c6:	a816      	add	r0, sp, #88	@ 0x58
 80006c8:	f7ff fe4c 	bl	8000364 <restore_non_core_regs>
 80006cc:	0030      	movs	r0, r6
 80006ce:	2390      	movs	r3, #144	@ 0x90
 80006d0:	009b      	lsls	r3, r3, #2
 80006d2:	449d      	add	sp, r3
 80006d4:	bd70      	pop	{r4, r5, r6, pc}
 80006d6:	46c0      	nop			@ (mov r8, r8)
 80006d8:	fffffdc0 	.word	0xfffffdc0

080006dc <__gnu_unwind_pr_common>:
 80006dc:	b5f0      	push	{r4, r5, r6, r7, lr}
 80006de:	464e      	mov	r6, r9
 80006e0:	4645      	mov	r5, r8
 80006e2:	46de      	mov	lr, fp
 80006e4:	4657      	mov	r7, sl
 80006e6:	b5e0      	push	{r5, r6, r7, lr}
 80006e8:	000d      	movs	r5, r1
 80006ea:	2103      	movs	r1, #3
 80006ec:	6cec      	ldr	r4, [r5, #76]	@ 0x4c
 80006ee:	0016      	movs	r6, r2
 80006f0:	cc04      	ldmia	r4!, {r2}
 80006f2:	b08b      	sub	sp, #44	@ 0x2c
 80006f4:	4694      	mov	ip, r2
 80006f6:	4001      	ands	r1, r0
 80006f8:	9408      	str	r4, [sp, #32]
 80006fa:	2b00      	cmp	r3, #0
 80006fc:	d100      	bne.n	8000700 <__gnu_unwind_pr_common+0x24>
 80006fe:	e07f      	b.n	8000800 <__gnu_unwind_pr_common+0x124>
 8000700:	0c17      	lsrs	r7, r2, #16
 8000702:	aa06      	add	r2, sp, #24
 8000704:	7357      	strb	r7, [r2, #13]
 8000706:	4662      	mov	r2, ip
 8000708:	0412      	lsls	r2, r2, #16
 800070a:	9207      	str	r2, [sp, #28]
 800070c:	22ff      	movs	r2, #255	@ 0xff
 800070e:	403a      	ands	r2, r7
 8000710:	0092      	lsls	r2, r2, #2
 8000712:	18a4      	adds	r4, r4, r2
 8000714:	2202      	movs	r2, #2
 8000716:	af06      	add	r7, sp, #24
 8000718:	733a      	strb	r2, [r7, #12]
 800071a:	2902      	cmp	r1, #2
 800071c:	d100      	bne.n	8000720 <__gnu_unwind_pr_common+0x44>
 800071e:	6bac      	ldr	r4, [r5, #56]	@ 0x38
 8000720:	6d2a      	ldr	r2, [r5, #80]	@ 0x50
 8000722:	07d2      	lsls	r2, r2, #31
 8000724:	d507      	bpl.n	8000736 <__gnu_unwind_pr_common+0x5a>
 8000726:	0030      	movs	r0, r6
 8000728:	a907      	add	r1, sp, #28
 800072a:	f000 fb7b 	bl	8000e24 <__gnu_unwind_execute>
 800072e:	2800      	cmp	r0, #0
 8000730:	d15b      	bne.n	80007ea <__gnu_unwind_pr_common+0x10e>
 8000732:	2008      	movs	r0, #8
 8000734:	e05a      	b.n	80007ec <__gnu_unwind_pr_common+0x110>
 8000736:	6822      	ldr	r2, [r4, #0]
 8000738:	4693      	mov	fp, r2
 800073a:	2a00      	cmp	r2, #0
 800073c:	d0f3      	beq.n	8000726 <__gnu_unwind_pr_common+0x4a>
 800073e:	2208      	movs	r2, #8
 8000740:	4002      	ands	r2, r0
 8000742:	9203      	str	r2, [sp, #12]
 8000744:	2200      	movs	r2, #0
 8000746:	9204      	str	r2, [sp, #16]
 8000748:	3202      	adds	r2, #2
 800074a:	2701      	movs	r7, #1
 800074c:	4690      	mov	r8, r2
 800074e:	46aa      	mov	sl, r5
 8000750:	46b1      	mov	r9, r6
 8000752:	9102      	str	r1, [sp, #8]
 8000754:	9301      	str	r3, [sp, #4]
 8000756:	9b01      	ldr	r3, [sp, #4]
 8000758:	2b02      	cmp	r3, #2
 800075a:	d04e      	beq.n	80007fa <__gnu_unwind_pr_common+0x11e>
 800075c:	8823      	ldrh	r3, [r4, #0]
 800075e:	8865      	ldrh	r5, [r4, #2]
 8000760:	469b      	mov	fp, r3
 8000762:	3404      	adds	r4, #4
 8000764:	4653      	mov	r3, sl
 8000766:	002e      	movs	r6, r5
 8000768:	6c9b      	ldr	r3, [r3, #72]	@ 0x48
 800076a:	210f      	movs	r1, #15
 800076c:	4648      	mov	r0, r9
 800076e:	43be      	bics	r6, r7
 8000770:	18f6      	adds	r6, r6, r3
 8000772:	f7ff ff43 	bl	80005fc <_Unwind_GetGR>
 8000776:	2300      	movs	r3, #0
 8000778:	4286      	cmp	r6, r0
 800077a:	d805      	bhi.n	8000788 <__gnu_unwind_pr_common+0xac>
 800077c:	465b      	mov	r3, fp
 800077e:	43bb      	bics	r3, r7
 8000780:	199b      	adds	r3, r3, r6
 8000782:	4298      	cmp	r0, r3
 8000784:	419b      	sbcs	r3, r3
 8000786:	425b      	negs	r3, r3
 8000788:	4642      	mov	r2, r8
 800078a:	006d      	lsls	r5, r5, #1
 800078c:	4015      	ands	r5, r2
 800078e:	465a      	mov	r2, fp
 8000790:	403a      	ands	r2, r7
 8000792:	4315      	orrs	r5, r2
 8000794:	2d01      	cmp	r5, #1
 8000796:	d050      	beq.n	800083a <__gnu_unwind_pr_common+0x15e>
 8000798:	2d02      	cmp	r5, #2
 800079a:	d037      	beq.n	800080c <__gnu_unwind_pr_common+0x130>
 800079c:	2d00      	cmp	r5, #0
 800079e:	d124      	bne.n	80007ea <__gnu_unwind_pr_common+0x10e>
 80007a0:	9a02      	ldr	r2, [sp, #8]
 80007a2:	2a00      	cmp	r2, #0
 80007a4:	d002      	beq.n	80007ac <__gnu_unwind_pr_common+0xd0>
 80007a6:	2b00      	cmp	r3, #0
 80007a8:	d000      	beq.n	80007ac <__gnu_unwind_pr_common+0xd0>
 80007aa:	e0c3      	b.n	8000934 <__gnu_unwind_pr_common+0x258>
 80007ac:	3404      	adds	r4, #4
 80007ae:	6823      	ldr	r3, [r4, #0]
 80007b0:	469b      	mov	fp, r3
 80007b2:	2b00      	cmp	r3, #0
 80007b4:	d1cf      	bne.n	8000756 <__gnu_unwind_pr_common+0x7a>
 80007b6:	464e      	mov	r6, r9
 80007b8:	a907      	add	r1, sp, #28
 80007ba:	0030      	movs	r0, r6
 80007bc:	f000 fb32 	bl	8000e24 <__gnu_unwind_execute>
 80007c0:	2800      	cmp	r0, #0
 80007c2:	d112      	bne.n	80007ea <__gnu_unwind_pr_common+0x10e>
 80007c4:	9b04      	ldr	r3, [sp, #16]
 80007c6:	2b00      	cmp	r3, #0
 80007c8:	d0b3      	beq.n	8000732 <__gnu_unwind_pr_common+0x56>
 80007ca:	210f      	movs	r1, #15
 80007cc:	0030      	movs	r0, r6
 80007ce:	f7ff ff15 	bl	80005fc <_Unwind_GetGR>
 80007d2:	210e      	movs	r1, #14
 80007d4:	0002      	movs	r2, r0
 80007d6:	0030      	movs	r0, r6
 80007d8:	f7ff ff3e 	bl	8000658 <_Unwind_SetGR>
 80007dc:	0030      	movs	r0, r6
 80007de:	210f      	movs	r1, #15
 80007e0:	4a73      	ldr	r2, [pc, #460]	@ (80009b0 <__gnu_unwind_pr_common+0x2d4>)
 80007e2:	f7ff ff39 	bl	8000658 <_Unwind_SetGR>
 80007e6:	2007      	movs	r0, #7
 80007e8:	e000      	b.n	80007ec <__gnu_unwind_pr_common+0x110>
 80007ea:	2009      	movs	r0, #9
 80007ec:	b00b      	add	sp, #44	@ 0x2c
 80007ee:	bcf0      	pop	{r4, r5, r6, r7}
 80007f0:	46bb      	mov	fp, r7
 80007f2:	46b2      	mov	sl, r6
 80007f4:	46a9      	mov	r9, r5
 80007f6:	46a0      	mov	r8, r4
 80007f8:	bdf0      	pop	{r4, r5, r6, r7, pc}
 80007fa:	6865      	ldr	r5, [r4, #4]
 80007fc:	3408      	adds	r4, #8
 80007fe:	e7b1      	b.n	8000764 <__gnu_unwind_pr_common+0x88>
 8000800:	0212      	lsls	r2, r2, #8
 8000802:	9207      	str	r2, [sp, #28]
 8000804:	aa06      	add	r2, sp, #24
 8000806:	7353      	strb	r3, [r2, #13]
 8000808:	2203      	movs	r2, #3
 800080a:	e784      	b.n	8000716 <__gnu_unwind_pr_common+0x3a>
 800080c:	6825      	ldr	r5, [r4, #0]
 800080e:	006a      	lsls	r2, r5, #1
 8000810:	0852      	lsrs	r2, r2, #1
 8000812:	4693      	mov	fp, r2
 8000814:	9a02      	ldr	r2, [sp, #8]
 8000816:	2a00      	cmp	r2, #0
 8000818:	d149      	bne.n	80008ae <__gnu_unwind_pr_common+0x1d2>
 800081a:	2b00      	cmp	r3, #0
 800081c:	d005      	beq.n	800082a <__gnu_unwind_pr_common+0x14e>
 800081e:	9b03      	ldr	r3, [sp, #12]
 8000820:	2b00      	cmp	r3, #0
 8000822:	d060      	beq.n	80008e6 <__gnu_unwind_pr_common+0x20a>
 8000824:	465b      	mov	r3, fp
 8000826:	2b00      	cmp	r3, #0
 8000828:	d05d      	beq.n	80008e6 <__gnu_unwind_pr_common+0x20a>
 800082a:	2d00      	cmp	r5, #0
 800082c:	da00      	bge.n	8000830 <__gnu_unwind_pr_common+0x154>
 800082e:	3404      	adds	r4, #4
 8000830:	465b      	mov	r3, fp
 8000832:	3301      	adds	r3, #1
 8000834:	009b      	lsls	r3, r3, #2
 8000836:	18e4      	adds	r4, r4, r3
 8000838:	e7b9      	b.n	80007ae <__gnu_unwind_pr_common+0xd2>
 800083a:	9a02      	ldr	r2, [sp, #8]
 800083c:	2a00      	cmp	r2, #0
 800083e:	d119      	bne.n	8000874 <__gnu_unwind_pr_common+0x198>
 8000840:	2b00      	cmp	r3, #0
 8000842:	d015      	beq.n	8000870 <__gnu_unwind_pr_common+0x194>
 8000844:	6825      	ldr	r5, [r4, #0]
 8000846:	6863      	ldr	r3, [r4, #4]
 8000848:	0fed      	lsrs	r5, r5, #31
 800084a:	1c9a      	adds	r2, r3, #2
 800084c:	d0cd      	beq.n	80007ea <__gnu_unwind_pr_common+0x10e>
 800084e:	4652      	mov	r2, sl
 8000850:	3258      	adds	r2, #88	@ 0x58
 8000852:	9206      	str	r2, [sp, #24]
 8000854:	3301      	adds	r3, #1
 8000856:	d100      	bne.n	800085a <__gnu_unwind_pr_common+0x17e>
 8000858:	e099      	b.n	800098e <__gnu_unwind_pr_common+0x2b2>
 800085a:	1d20      	adds	r0, r4, #4
 800085c:	f7ff fdb0 	bl	80003c0 <_Unwind_decode_typeinfo_ptr.constprop.0>
 8000860:	002a      	movs	r2, r5
 8000862:	0001      	movs	r1, r0
 8000864:	ab06      	add	r3, sp, #24
 8000866:	4650      	mov	r0, sl
 8000868:	e000      	b.n	800086c <__gnu_unwind_pr_common+0x190>
 800086a:	bf00      	nop
 800086c:	2800      	cmp	r0, #0
 800086e:	d176      	bne.n	800095e <__gnu_unwind_pr_common+0x282>
 8000870:	3408      	adds	r4, #8
 8000872:	e79c      	b.n	80007ae <__gnu_unwind_pr_common+0xd2>
 8000874:	4653      	mov	r3, sl
 8000876:	210d      	movs	r1, #13
 8000878:	4648      	mov	r0, r9
 800087a:	6a1d      	ldr	r5, [r3, #32]
 800087c:	f7ff febe 	bl	80005fc <_Unwind_GetGR>
 8000880:	4285      	cmp	r5, r0
 8000882:	d1f5      	bne.n	8000870 <__gnu_unwind_pr_common+0x194>
 8000884:	4653      	mov	r3, sl
 8000886:	6a9b      	ldr	r3, [r3, #40]	@ 0x28
 8000888:	429c      	cmp	r4, r3
 800088a:	d1f1      	bne.n	8000870 <__gnu_unwind_pr_common+0x194>
 800088c:	4655      	mov	r5, sl
 800088e:	464e      	mov	r6, r9
 8000890:	0020      	movs	r0, r4
 8000892:	f7ff fcc5 	bl	8000220 <selfrel_offset31>
 8000896:	210f      	movs	r1, #15
 8000898:	0002      	movs	r2, r0
 800089a:	0030      	movs	r0, r6
 800089c:	f7ff fedc 	bl	8000658 <_Unwind_SetGR>
 80008a0:	0030      	movs	r0, r6
 80008a2:	002a      	movs	r2, r5
 80008a4:	2100      	movs	r1, #0
 80008a6:	f7ff fed7 	bl	8000658 <_Unwind_SetGR>
 80008aa:	2007      	movs	r0, #7
 80008ac:	e79e      	b.n	80007ec <__gnu_unwind_pr_common+0x110>
 80008ae:	4653      	mov	r3, sl
 80008b0:	210d      	movs	r1, #13
 80008b2:	4648      	mov	r0, r9
 80008b4:	6a1e      	ldr	r6, [r3, #32]
 80008b6:	f7ff fea1 	bl	80005fc <_Unwind_GetGR>
 80008ba:	4286      	cmp	r6, r0
 80008bc:	d1b5      	bne.n	800082a <__gnu_unwind_pr_common+0x14e>
 80008be:	4653      	mov	r3, sl
 80008c0:	6a9b      	ldr	r3, [r3, #40]	@ 0x28
 80008c2:	429c      	cmp	r4, r3
 80008c4:	d1b1      	bne.n	800082a <__gnu_unwind_pr_common+0x14e>
 80008c6:	4653      	mov	r3, sl
 80008c8:	465a      	mov	r2, fp
 80008ca:	629a      	str	r2, [r3, #40]	@ 0x28
 80008cc:	4652      	mov	r2, sl
 80008ce:	2300      	movs	r3, #0
 80008d0:	62d3      	str	r3, [r2, #44]	@ 0x2c
 80008d2:	3304      	adds	r3, #4
 80008d4:	6313      	str	r3, [r2, #48]	@ 0x30
 80008d6:	1d23      	adds	r3, r4, #4
 80008d8:	6353      	str	r3, [r2, #52]	@ 0x34
 80008da:	6823      	ldr	r3, [r4, #0]
 80008dc:	2b00      	cmp	r3, #0
 80008de:	db60      	blt.n	80009a2 <__gnu_unwind_pr_common+0x2c6>
 80008e0:	2301      	movs	r3, #1
 80008e2:	9304      	str	r3, [sp, #16]
 80008e4:	e7a4      	b.n	8000830 <__gnu_unwind_pr_common+0x154>
 80008e6:	2358      	movs	r3, #88	@ 0x58
 80008e8:	4453      	add	r3, sl
 80008ea:	9305      	str	r3, [sp, #20]
 80008ec:	465b      	mov	r3, fp
 80008ee:	1d25      	adds	r5, r4, #4
 80008f0:	46a3      	mov	fp, r4
 80008f2:	2600      	movs	r6, #0
 80008f4:	001c      	movs	r4, r3
 80008f6:	e00e      	b.n	8000916 <__gnu_unwind_pr_common+0x23a>
 80008f8:	9b05      	ldr	r3, [sp, #20]
 80008fa:	0028      	movs	r0, r5
 80008fc:	9306      	str	r3, [sp, #24]
 80008fe:	f7ff fd5f 	bl	80003c0 <_Unwind_decode_typeinfo_ptr.constprop.0>
 8000902:	2200      	movs	r2, #0
 8000904:	0001      	movs	r1, r0
 8000906:	ab06      	add	r3, sp, #24
 8000908:	4650      	mov	r0, sl
 800090a:	e000      	b.n	800090e <__gnu_unwind_pr_common+0x232>
 800090c:	bf00      	nop
 800090e:	3601      	adds	r6, #1
 8000910:	3504      	adds	r5, #4
 8000912:	2800      	cmp	r0, #0
 8000914:	d136      	bne.n	8000984 <__gnu_unwind_pr_common+0x2a8>
 8000916:	42a6      	cmp	r6, r4
 8000918:	d1ee      	bne.n	80008f8 <__gnu_unwind_pr_common+0x21c>
 800091a:	464e      	mov	r6, r9
 800091c:	210d      	movs	r1, #13
 800091e:	0030      	movs	r0, r6
 8000920:	f7ff fe6c 	bl	80005fc <_Unwind_GetGR>
 8000924:	4655      	mov	r5, sl
 8000926:	465c      	mov	r4, fp
 8000928:	9b06      	ldr	r3, [sp, #24]
 800092a:	6228      	str	r0, [r5, #32]
 800092c:	626b      	str	r3, [r5, #36]	@ 0x24
 800092e:	2006      	movs	r0, #6
 8000930:	62ac      	str	r4, [r5, #40]	@ 0x28
 8000932:	e75b      	b.n	80007ec <__gnu_unwind_pr_common+0x110>
 8000934:	0020      	movs	r0, r4
 8000936:	f7ff fc73 	bl	8000220 <selfrel_offset31>
 800093a:	4655      	mov	r5, sl
 800093c:	3404      	adds	r4, #4
 800093e:	0007      	movs	r7, r0
 8000940:	63ac      	str	r4, [r5, #56]	@ 0x38
 8000942:	0028      	movs	r0, r5
 8000944:	464e      	mov	r6, r9
 8000946:	e000      	b.n	800094a <__gnu_unwind_pr_common+0x26e>
 8000948:	bf00      	nop
 800094a:	2800      	cmp	r0, #0
 800094c:	d100      	bne.n	8000950 <__gnu_unwind_pr_common+0x274>
 800094e:	e74c      	b.n	80007ea <__gnu_unwind_pr_common+0x10e>
 8000950:	0030      	movs	r0, r6
 8000952:	003a      	movs	r2, r7
 8000954:	210f      	movs	r1, #15
 8000956:	f7ff fe7f 	bl	8000658 <_Unwind_SetGR>
 800095a:	2007      	movs	r0, #7
 800095c:	e746      	b.n	80007ec <__gnu_unwind_pr_common+0x110>
 800095e:	464e      	mov	r6, r9
 8000960:	4681      	mov	r9, r0
 8000962:	210d      	movs	r1, #13
 8000964:	0030      	movs	r0, r6
 8000966:	f7ff fe49 	bl	80005fc <_Unwind_GetGR>
 800096a:	4655      	mov	r5, sl
 800096c:	464b      	mov	r3, r9
 800096e:	9f06      	ldr	r7, [sp, #24]
 8000970:	6228      	str	r0, [r5, #32]
 8000972:	2b02      	cmp	r3, #2
 8000974:	d102      	bne.n	800097c <__gnu_unwind_pr_common+0x2a0>
 8000976:	62ef      	str	r7, [r5, #44]	@ 0x2c
 8000978:	002f      	movs	r7, r5
 800097a:	372c      	adds	r7, #44	@ 0x2c
 800097c:	2006      	movs	r0, #6
 800097e:	626f      	str	r7, [r5, #36]	@ 0x24
 8000980:	62ac      	str	r4, [r5, #40]	@ 0x28
 8000982:	e733      	b.n	80007ec <__gnu_unwind_pr_common+0x110>
 8000984:	0023      	movs	r3, r4
 8000986:	465c      	mov	r4, fp
 8000988:	469b      	mov	fp, r3
 800098a:	6825      	ldr	r5, [r4, #0]
 800098c:	e74d      	b.n	800082a <__gnu_unwind_pr_common+0x14e>
 800098e:	464e      	mov	r6, r9
 8000990:	210d      	movs	r1, #13
 8000992:	0030      	movs	r0, r6
 8000994:	4655      	mov	r5, sl
 8000996:	4692      	mov	sl, r2
 8000998:	f7ff fe30 	bl	80005fc <_Unwind_GetGR>
 800099c:	4657      	mov	r7, sl
 800099e:	6228      	str	r0, [r5, #32]
 80009a0:	e7ec      	b.n	800097c <__gnu_unwind_pr_common+0x2a0>
 80009a2:	4658      	mov	r0, fp
 80009a4:	3001      	adds	r0, #1
 80009a6:	0080      	lsls	r0, r0, #2
 80009a8:	4655      	mov	r5, sl
 80009aa:	464e      	mov	r6, r9
 80009ac:	1820      	adds	r0, r4, r0
 80009ae:	e770      	b.n	8000892 <__gnu_unwind_pr_common+0x1b6>
 80009b0:	00000000 	.word	0x00000000

080009b4 <__aeabi_unwind_cpp_pr0>:
 80009b4:	b510      	push	{r4, lr}
 80009b6:	2300      	movs	r3, #0
 80009b8:	f7ff fe90 	bl	80006dc <__gnu_unwind_pr_common>
 80009bc:	bd10      	pop	{r4, pc}
 80009be:	46c0      	nop			@ (mov r8, r8)

080009c0 <__aeabi_unwind_cpp_pr1>:
 80009c0:	b510      	push	{r4, lr}
 80009c2:	2301      	movs	r3, #1
 80009c4:	f7ff fe8a 	bl	80006dc <__gnu_unwind_pr_common>
 80009c8:	bd10      	pop	{r4, pc}
 80009ca:	46c0      	nop			@ (mov r8, r8)

080009cc <__aeabi_unwind_cpp_pr2>:
 80009cc:	b510      	push	{r4, lr}
 80009ce:	2302      	movs	r3, #2
 80009d0:	f7ff fe84 	bl	80006dc <__gnu_unwind_pr_common>
 80009d4:	bd10      	pop	{r4, pc}
 80009d6:	46c0      	nop			@ (mov r8, r8)

080009d8 <_Unwind_VRS_Pop>:
 80009d8:	b5f0      	push	{r4, r5, r6, r7, lr}
 80009da:	46ce      	mov	lr, r9
 80009dc:	4647      	mov	r7, r8
 80009de:	b580      	push	{r7, lr}
 80009e0:	0005      	movs	r5, r0
 80009e2:	0014      	movs	r4, r2
 80009e4:	001e      	movs	r6, r3
 80009e6:	b0c3      	sub	sp, #268	@ 0x10c
 80009e8:	2905      	cmp	r1, #5
 80009ea:	d900      	bls.n	80009ee <_Unwind_VRS_Pop+0x16>
 80009ec:	e0e5      	b.n	8000bba <_Unwind_VRS_Pop+0x1e2>
 80009ee:	4ba6      	ldr	r3, [pc, #664]	@ (8000c88 <_Unwind_VRS_Pop+0x2b0>)
 80009f0:	0089      	lsls	r1, r1, #2
 80009f2:	585b      	ldr	r3, [r3, r1]
 80009f4:	469f      	mov	pc, r3
 80009f6:	6b83      	ldr	r3, [r0, #56]	@ 0x38
 80009f8:	2a00      	cmp	r2, #0
 80009fa:	d000      	beq.n	80009fe <_Unwind_VRS_Pop+0x26>
 80009fc:	e0dd      	b.n	8000bba <_Unwind_VRS_Pop+0x1e2>
 80009fe:	cb04      	ldmia	r3!, {r2}
 8000a00:	6442      	str	r2, [r0, #68]	@ 0x44
 8000a02:	6383      	str	r3, [r0, #56]	@ 0x38
 8000a04:	2000      	movs	r0, #0
 8000a06:	b043      	add	sp, #268	@ 0x10c
 8000a08:	bcc0      	pop	{r6, r7}
 8000a0a:	46b9      	mov	r9, r7
 8000a0c:	46b0      	mov	r8, r6
 8000a0e:	bdf0      	pop	{r4, r5, r6, r7, pc}
 8000a10:	2e00      	cmp	r6, #0
 8000a12:	d000      	beq.n	8000a16 <_Unwind_VRS_Pop+0x3e>
 8000a14:	e0d1      	b.n	8000bba <_Unwind_VRS_Pop+0x1e2>
 8000a16:	2300      	movs	r3, #0
 8000a18:	2701      	movs	r7, #1
 8000a1a:	0416      	lsls	r6, r2, #16
 8000a1c:	6b82      	ldr	r2, [r0, #56]	@ 0x38
 8000a1e:	0c36      	lsrs	r6, r6, #16
 8000a20:	1d01      	adds	r1, r0, #4
 8000a22:	0038      	movs	r0, r7
 8000a24:	4098      	lsls	r0, r3
 8000a26:	4206      	tst	r6, r0
 8000a28:	d001      	beq.n	8000a2e <_Unwind_VRS_Pop+0x56>
 8000a2a:	ca01      	ldmia	r2!, {r0}
 8000a2c:	6008      	str	r0, [r1, #0]
 8000a2e:	3301      	adds	r3, #1
 8000a30:	3104      	adds	r1, #4
 8000a32:	2b10      	cmp	r3, #16
 8000a34:	d1f5      	bne.n	8000a22 <_Unwind_VRS_Pop+0x4a>
 8000a36:	04a4      	lsls	r4, r4, #18
 8000a38:	d4e4      	bmi.n	8000a04 <_Unwind_VRS_Pop+0x2c>
 8000a3a:	63aa      	str	r2, [r5, #56]	@ 0x38
 8000a3c:	e7e2      	b.n	8000a04 <_Unwind_VRS_Pop+0x2c>
 8000a3e:	2e03      	cmp	r6, #3
 8000a40:	d000      	beq.n	8000a44 <_Unwind_VRS_Pop+0x6c>
 8000a42:	e0ba      	b.n	8000bba <_Unwind_VRS_Pop+0x1e2>
 8000a44:	0414      	lsls	r4, r2, #16
 8000a46:	0c16      	lsrs	r6, r2, #16
 8000a48:	0c24      	lsrs	r4, r4, #16
 8000a4a:	1933      	adds	r3, r6, r4
 8000a4c:	2b10      	cmp	r3, #16
 8000a4e:	d900      	bls.n	8000a52 <_Unwind_VRS_Pop+0x7a>
 8000a50:	e0b3      	b.n	8000bba <_Unwind_VRS_Pop+0x1e2>
 8000a52:	2208      	movs	r2, #8
 8000a54:	6803      	ldr	r3, [r0, #0]
 8000a56:	421a      	tst	r2, r3
 8000a58:	d000      	beq.n	8000a5c <_Unwind_VRS_Pop+0x84>
 8000a5a:	e0e1      	b.n	8000c20 <_Unwind_VRS_Pop+0x248>
 8000a5c:	af20      	add	r7, sp, #128	@ 0x80
 8000a5e:	0038      	movs	r0, r7
 8000a60:	f000 f938 	bl	8000cd4 <__gnu_Unwind_Save_WMMXD>
 8000a64:	6bab      	ldr	r3, [r5, #56]	@ 0x38
 8000a66:	00f6      	lsls	r6, r6, #3
 8000a68:	469c      	mov	ip, r3
 8000a6a:	0063      	lsls	r3, r4, #1
 8000a6c:	1e5a      	subs	r2, r3, #1
 8000a6e:	2b00      	cmp	r3, #0
 8000a70:	d00b      	beq.n	8000a8a <_Unwind_VRS_Pop+0xb2>
 8000a72:	4663      	mov	r3, ip
 8000a74:	1af6      	subs	r6, r6, r3
 8000a76:	3e04      	subs	r6, #4
 8000a78:	19be      	adds	r6, r7, r6
 8000a7a:	0018      	movs	r0, r3
 8000a7c:	6800      	ldr	r0, [r0, #0]
 8000a7e:	3304      	adds	r3, #4
 8000a80:	5198      	str	r0, [r3, r6]
 8000a82:	3a01      	subs	r2, #1
 8000a84:	d2f9      	bcs.n	8000a7a <_Unwind_VRS_Pop+0xa2>
 8000a86:	00e4      	lsls	r4, r4, #3
 8000a88:	44a4      	add	ip, r4
 8000a8a:	4663      	mov	r3, ip
 8000a8c:	0038      	movs	r0, r7
 8000a8e:	63ab      	str	r3, [r5, #56]	@ 0x38
 8000a90:	f000 f91e 	bl	8000cd0 <__gnu_Unwind_Restore_WMMXD>
 8000a94:	e7b6      	b.n	8000a04 <_Unwind_VRS_Pop+0x2c>
 8000a96:	0c13      	lsrs	r3, r2, #16
 8000a98:	0414      	lsls	r4, r2, #16
 8000a9a:	4698      	mov	r8, r3
 8000a9c:	0c24      	lsrs	r4, r4, #16
 8000a9e:	2e01      	cmp	r6, #1
 8000aa0:	d056      	beq.n	8000b50 <_Unwind_VRS_Pop+0x178>
 8000aa2:	2e05      	cmp	r6, #5
 8000aa4:	d000      	beq.n	8000aa8 <_Unwind_VRS_Pop+0xd0>
 8000aa6:	e088      	b.n	8000bba <_Unwind_VRS_Pop+0x1e2>
 8000aa8:	46a1      	mov	r9, r4
 8000aaa:	44c1      	add	r9, r8
 8000aac:	464b      	mov	r3, r9
 8000aae:	2b20      	cmp	r3, #32
 8000ab0:	d900      	bls.n	8000ab4 <_Unwind_VRS_Pop+0xdc>
 8000ab2:	e082      	b.n	8000bba <_Unwind_VRS_Pop+0x1e2>
 8000ab4:	4643      	mov	r3, r8
 8000ab6:	2b0f      	cmp	r3, #15
 8000ab8:	d800      	bhi.n	8000abc <_Unwind_VRS_Pop+0xe4>
 8000aba:	e080      	b.n	8000bbe <_Unwind_VRS_Pop+0x1e6>
 8000abc:	2c00      	cmp	r4, #0
 8000abe:	d0a1      	beq.n	8000a04 <_Unwind_VRS_Pop+0x2c>
 8000ac0:	2204      	movs	r2, #4
 8000ac2:	6803      	ldr	r3, [r0, #0]
 8000ac4:	421a      	tst	r2, r3
 8000ac6:	d004      	beq.n	8000ad2 <_Unwind_VRS_Pop+0xfa>
 8000ac8:	4393      	bics	r3, r2
 8000aca:	6003      	str	r3, [r0, #0]
 8000acc:	30d8      	adds	r0, #216	@ 0xd8
 8000ace:	f000 f8fd 	bl	8000ccc <__gnu_Unwind_Save_VFP_D_16_to_31>
 8000ad2:	466f      	mov	r7, sp
 8000ad4:	0038      	movs	r0, r7
 8000ad6:	f000 f8f9 	bl	8000ccc <__gnu_Unwind_Save_VFP_D_16_to_31>
 8000ada:	0062      	lsls	r2, r4, #1
 8000adc:	4644      	mov	r4, r8
 8000ade:	6ba9      	ldr	r1, [r5, #56]	@ 0x38
 8000ae0:	2300      	movs	r3, #0
 8000ae2:	3c10      	subs	r4, #16
 8000ae4:	3a01      	subs	r2, #1
 8000ae6:	00e4      	lsls	r4, r4, #3
 8000ae8:	3201      	adds	r2, #1
 8000aea:	193c      	adds	r4, r7, r4
 8000aec:	0092      	lsls	r2, r2, #2
 8000aee:	58c8      	ldr	r0, [r1, r3]
 8000af0:	50e0      	str	r0, [r4, r3]
 8000af2:	3304      	adds	r3, #4
 8000af4:	4293      	cmp	r3, r2
 8000af6:	d1fa      	bne.n	8000aee <_Unwind_VRS_Pop+0x116>
 8000af8:	18c9      	adds	r1, r1, r3
 8000afa:	2e01      	cmp	r6, #1
 8000afc:	d100      	bne.n	8000b00 <_Unwind_VRS_Pop+0x128>
 8000afe:	e09e      	b.n	8000c3e <_Unwind_VRS_Pop+0x266>
 8000b00:	4643      	mov	r3, r8
 8000b02:	63a9      	str	r1, [r5, #56]	@ 0x38
 8000b04:	2b0f      	cmp	r3, #15
 8000b06:	d800      	bhi.n	8000b0a <_Unwind_VRS_Pop+0x132>
 8000b08:	e0aa      	b.n	8000c60 <_Unwind_VRS_Pop+0x288>
 8000b0a:	0038      	movs	r0, r7
 8000b0c:	f000 f8dc 	bl	8000cc8 <__gnu_Unwind_Restore_VFP_D_16_to_31>
 8000b10:	e778      	b.n	8000a04 <_Unwind_VRS_Pop+0x2c>
 8000b12:	2e00      	cmp	r6, #0
 8000b14:	d151      	bne.n	8000bba <_Unwind_VRS_Pop+0x1e2>
 8000b16:	2a10      	cmp	r2, #16
 8000b18:	d84f      	bhi.n	8000bba <_Unwind_VRS_Pop+0x1e2>
 8000b1a:	2210      	movs	r2, #16
 8000b1c:	6803      	ldr	r3, [r0, #0]
 8000b1e:	421a      	tst	r2, r3
 8000b20:	d177      	bne.n	8000c12 <_Unwind_VRS_Pop+0x23a>
 8000b22:	af20      	add	r7, sp, #128	@ 0x80
 8000b24:	0038      	movs	r0, r7
 8000b26:	f000 f8d9 	bl	8000cdc <__gnu_Unwind_Save_WMMXC>
 8000b2a:	2601      	movs	r6, #1
 8000b2c:	0039      	movs	r1, r7
 8000b2e:	2300      	movs	r3, #0
 8000b30:	6baa      	ldr	r2, [r5, #56]	@ 0x38
 8000b32:	0030      	movs	r0, r6
 8000b34:	4098      	lsls	r0, r3
 8000b36:	4204      	tst	r4, r0
 8000b38:	d001      	beq.n	8000b3e <_Unwind_VRS_Pop+0x166>
 8000b3a:	ca01      	ldmia	r2!, {r0}
 8000b3c:	6008      	str	r0, [r1, #0]
 8000b3e:	3301      	adds	r3, #1
 8000b40:	3104      	adds	r1, #4
 8000b42:	2b04      	cmp	r3, #4
 8000b44:	d1f5      	bne.n	8000b32 <_Unwind_VRS_Pop+0x15a>
 8000b46:	0038      	movs	r0, r7
 8000b48:	63aa      	str	r2, [r5, #56]	@ 0x38
 8000b4a:	f000 f8c5 	bl	8000cd8 <__gnu_Unwind_Restore_WMMXC>
 8000b4e:	e759      	b.n	8000a04 <_Unwind_VRS_Pop+0x2c>
 8000b50:	191b      	adds	r3, r3, r4
 8000b52:	2b10      	cmp	r3, #16
 8000b54:	d831      	bhi.n	8000bba <_Unwind_VRS_Pop+0x1e2>
 8000b56:	4643      	mov	r3, r8
 8000b58:	2b10      	cmp	r3, #16
 8000b5a:	d02e      	beq.n	8000bba <_Unwind_VRS_Pop+0x1e2>
 8000b5c:	6803      	ldr	r3, [r0, #0]
 8000b5e:	4233      	tst	r3, r6
 8000b60:	d006      	beq.n	8000b70 <_Unwind_VRS_Pop+0x198>
 8000b62:	2203      	movs	r2, #3
 8000b64:	0028      	movs	r0, r5
 8000b66:	4393      	bics	r3, r2
 8000b68:	602b      	str	r3, [r5, #0]
 8000b6a:	3050      	adds	r0, #80	@ 0x50
 8000b6c:	f000 f8a6 	bl	8000cbc <__gnu_Unwind_Save_VFP>
 8000b70:	af20      	add	r7, sp, #128	@ 0x80
 8000b72:	0038      	movs	r0, r7
 8000b74:	f000 f8a2 	bl	8000cbc <__gnu_Unwind_Save_VFP>
 8000b78:	6ba9      	ldr	r1, [r5, #56]	@ 0x38
 8000b7a:	2c00      	cmp	r4, #0
 8000b7c:	d060      	beq.n	8000c40 <_Unwind_VRS_Pop+0x268>
 8000b7e:	2200      	movs	r2, #0
 8000b80:	4643      	mov	r3, r8
 8000b82:	4694      	mov	ip, r2
 8000b84:	0064      	lsls	r4, r4, #1
 8000b86:	00db      	lsls	r3, r3, #3
 8000b88:	18fb      	adds	r3, r7, r3
 8000b8a:	3c01      	subs	r4, #1
 8000b8c:	2200      	movs	r2, #0
 8000b8e:	3401      	adds	r4, #1
 8000b90:	00a4      	lsls	r4, r4, #2
 8000b92:	5888      	ldr	r0, [r1, r2]
 8000b94:	5098      	str	r0, [r3, r2]
 8000b96:	3204      	adds	r2, #4
 8000b98:	42a2      	cmp	r2, r4
 8000b9a:	d1fa      	bne.n	8000b92 <_Unwind_VRS_Pop+0x1ba>
 8000b9c:	4663      	mov	r3, ip
 8000b9e:	1889      	adds	r1, r1, r2
 8000ba0:	2b00      	cmp	r3, #0
 8000ba2:	d144      	bne.n	8000c2e <_Unwind_VRS_Pop+0x256>
 8000ba4:	2e01      	cmp	r6, #1
 8000ba6:	d04b      	beq.n	8000c40 <_Unwind_VRS_Pop+0x268>
 8000ba8:	4643      	mov	r3, r8
 8000baa:	63a9      	str	r1, [r5, #56]	@ 0x38
 8000bac:	2b0f      	cmp	r3, #15
 8000bae:	d900      	bls.n	8000bb2 <_Unwind_VRS_Pop+0x1da>
 8000bb0:	e728      	b.n	8000a04 <_Unwind_VRS_Pop+0x2c>
 8000bb2:	0038      	movs	r0, r7
 8000bb4:	f000 f884 	bl	8000cc0 <__gnu_Unwind_Restore_VFP_D>
 8000bb8:	e724      	b.n	8000a04 <_Unwind_VRS_Pop+0x2c>
 8000bba:	2002      	movs	r0, #2
 8000bbc:	e723      	b.n	8000a06 <_Unwind_VRS_Pop+0x2e>
 8000bbe:	2201      	movs	r2, #1
 8000bc0:	6803      	ldr	r3, [r0, #0]
 8000bc2:	0011      	movs	r1, r2
 8000bc4:	4648      	mov	r0, r9
 8000bc6:	4019      	ands	r1, r3
 8000bc8:	2810      	cmp	r0, #16
 8000bca:	d93f      	bls.n	8000c4c <_Unwind_VRS_Pop+0x274>
 8000bcc:	2900      	cmp	r1, #0
 8000bce:	d008      	beq.n	8000be2 <_Unwind_VRS_Pop+0x20a>
 8000bd0:	4393      	bics	r3, r2
 8000bd2:	2202      	movs	r2, #2
 8000bd4:	0028      	movs	r0, r5
 8000bd6:	4313      	orrs	r3, r2
 8000bd8:	602b      	str	r3, [r5, #0]
 8000bda:	3050      	adds	r0, #80	@ 0x50
 8000bdc:	f000 f872 	bl	8000cc4 <__gnu_Unwind_Save_VFP_D>
 8000be0:	682b      	ldr	r3, [r5, #0]
 8000be2:	2204      	movs	r2, #4
 8000be4:	421a      	tst	r2, r3
 8000be6:	d13f      	bne.n	8000c68 <_Unwind_VRS_Pop+0x290>
 8000be8:	af20      	add	r7, sp, #128	@ 0x80
 8000bea:	0038      	movs	r0, r7
 8000bec:	f000 f86a 	bl	8000cc4 <__gnu_Unwind_Save_VFP_D>
 8000bf0:	4668      	mov	r0, sp
 8000bf2:	f000 f86b 	bl	8000ccc <__gnu_Unwind_Save_VFP_D_16_to_31>
 8000bf6:	2410      	movs	r4, #16
 8000bf8:	4643      	mov	r3, r8
 8000bfa:	1ae4      	subs	r4, r4, r3
 8000bfc:	2310      	movs	r3, #16
 8000bfe:	425b      	negs	r3, r3
 8000c00:	444b      	add	r3, r9
 8000c02:	469c      	mov	ip, r3
 8000c04:	4643      	mov	r3, r8
 8000c06:	0064      	lsls	r4, r4, #1
 8000c08:	00db      	lsls	r3, r3, #3
 8000c0a:	6ba9      	ldr	r1, [r5, #56]	@ 0x38
 8000c0c:	18fb      	adds	r3, r7, r3
 8000c0e:	3c01      	subs	r4, #1
 8000c10:	e7bc      	b.n	8000b8c <_Unwind_VRS_Pop+0x1b4>
 8000c12:	4393      	bics	r3, r2
 8000c14:	6003      	str	r3, [r0, #0]
 8000c16:	30d9      	adds	r0, #217	@ 0xd9
 8000c18:	30ff      	adds	r0, #255	@ 0xff
 8000c1a:	f000 f85f 	bl	8000cdc <__gnu_Unwind_Save_WMMXC>
 8000c1e:	e780      	b.n	8000b22 <_Unwind_VRS_Pop+0x14a>
 8000c20:	4393      	bics	r3, r2
 8000c22:	6003      	str	r3, [r0, #0]
 8000c24:	3059      	adds	r0, #89	@ 0x59
 8000c26:	30ff      	adds	r0, #255	@ 0xff
 8000c28:	f000 f854 	bl	8000cd4 <__gnu_Unwind_Save_WMMXD>
 8000c2c:	e716      	b.n	8000a5c <_Unwind_VRS_Pop+0x84>
 8000c2e:	4644      	mov	r4, r8
 8000c30:	466f      	mov	r7, sp
 8000c32:	005a      	lsls	r2, r3, #1
 8000c34:	2c10      	cmp	r4, #16
 8000c36:	d300      	bcc.n	8000c3a <_Unwind_VRS_Pop+0x262>
 8000c38:	e752      	b.n	8000ae0 <_Unwind_VRS_Pop+0x108>
 8000c3a:	2410      	movs	r4, #16
 8000c3c:	e750      	b.n	8000ae0 <_Unwind_VRS_Pop+0x108>
 8000c3e:	af20      	add	r7, sp, #128	@ 0x80
 8000c40:	3104      	adds	r1, #4
 8000c42:	0038      	movs	r0, r7
 8000c44:	63a9      	str	r1, [r5, #56]	@ 0x38
 8000c46:	f000 f837 	bl	8000cb8 <__gnu_Unwind_Restore_VFP>
 8000c4a:	e6db      	b.n	8000a04 <_Unwind_VRS_Pop+0x2c>
 8000c4c:	2900      	cmp	r1, #0
 8000c4e:	d112      	bne.n	8000c76 <_Unwind_VRS_Pop+0x29e>
 8000c50:	af20      	add	r7, sp, #128	@ 0x80
 8000c52:	0038      	movs	r0, r7
 8000c54:	f000 f836 	bl	8000cc4 <__gnu_Unwind_Save_VFP_D>
 8000c58:	6ba9      	ldr	r1, [r5, #56]	@ 0x38
 8000c5a:	2c00      	cmp	r4, #0
 8000c5c:	d0a9      	beq.n	8000bb2 <_Unwind_VRS_Pop+0x1da>
 8000c5e:	e78e      	b.n	8000b7e <_Unwind_VRS_Pop+0x1a6>
 8000c60:	a820      	add	r0, sp, #128	@ 0x80
 8000c62:	f000 f82d 	bl	8000cc0 <__gnu_Unwind_Restore_VFP_D>
 8000c66:	e750      	b.n	8000b0a <_Unwind_VRS_Pop+0x132>
 8000c68:	0028      	movs	r0, r5
 8000c6a:	4393      	bics	r3, r2
 8000c6c:	602b      	str	r3, [r5, #0]
 8000c6e:	30d8      	adds	r0, #216	@ 0xd8
 8000c70:	f000 f82c 	bl	8000ccc <__gnu_Unwind_Save_VFP_D_16_to_31>
 8000c74:	e7b8      	b.n	8000be8 <_Unwind_VRS_Pop+0x210>
 8000c76:	4393      	bics	r3, r2
 8000c78:	2202      	movs	r2, #2
 8000c7a:	0028      	movs	r0, r5
 8000c7c:	4313      	orrs	r3, r2
 8000c7e:	602b      	str	r3, [r5, #0]
 8000c80:	3050      	adds	r0, #80	@ 0x50
 8000c82:	f000 f81f 	bl	8000cc4 <__gnu_Unwind_Save_VFP_D>
 8000c86:	e7e3      	b.n	8000c50 <_Unwind_VRS_Pop+0x278>
 8000c88:	08003840 	.word	0x08003840

08000c8c <__restore_core_regs>:
 8000c8c:	0001      	movs	r1, r0
 8000c8e:	3134      	adds	r1, #52	@ 0x34
 8000c90:	c938      	ldmia	r1!, {r3, r4, r5}
 8000c92:	3b04      	subs	r3, #4
 8000c94:	469c      	mov	ip, r3
 8000c96:	601d      	str	r5, [r3, #0]
 8000c98:	46a6      	mov	lr, r4
 8000c9a:	0001      	movs	r1, r0
 8000c9c:	3120      	adds	r1, #32
 8000c9e:	c93c      	ldmia	r1!, {r2, r3, r4, r5}
 8000ca0:	4690      	mov	r8, r2
 8000ca2:	4699      	mov	r9, r3
 8000ca4:	46a2      	mov	sl, r4
 8000ca6:	46ab      	mov	fp, r5
 8000ca8:	0001      	movs	r1, r0
 8000caa:	3108      	adds	r1, #8
 8000cac:	c9fc      	ldmia	r1!, {r2, r3, r4, r5, r6, r7}
 8000cae:	6841      	ldr	r1, [r0, #4]
 8000cb0:	6800      	ldr	r0, [r0, #0]
 8000cb2:	46e5      	mov	sp, ip
 8000cb4:	bd00      	pop	{pc}
 8000cb6:	46c0      	nop			@ (mov r8, r8)

08000cb8 <__gnu_Unwind_Restore_VFP>:
 8000cb8:	4770      	bx	lr
 8000cba:	46c0      	nop			@ (mov r8, r8)

08000cbc <__gnu_Unwind_Save_VFP>:
 8000cbc:	4770      	bx	lr
 8000cbe:	46c0      	nop			@ (mov r8, r8)

08000cc0 <__gnu_Unwind_Restore_VFP_D>:
 8000cc0:	4770      	bx	lr
 8000cc2:	46c0      	nop			@ (mov r8, r8)

08000cc4 <__gnu_Unwind_Save_VFP_D>:
 8000cc4:	4770      	bx	lr
 8000cc6:	46c0      	nop			@ (mov r8, r8)

08000cc8 <__gnu_Unwind_Restore_VFP_D_16_to_31>:
 8000cc8:	4770      	bx	lr
 8000cca:	46c0      	nop			@ (mov r8, r8)

08000ccc <__gnu_Unwind_Save_VFP_D_16_to_31>:
 8000ccc:	4770      	bx	lr
 8000cce:	46c0      	nop			@ (mov r8, r8)

08000cd0 <__gnu_Unwind_Restore_WMMXD>:
 8000cd0:	4770      	bx	lr
 8000cd2:	46c0      	nop			@ (mov r8, r8)

08000cd4 <__gnu_Unwind_Save_WMMXD>:
 8000cd4:	4770      	bx	lr
 8000cd6:	46c0      	nop			@ (mov r8, r8)

08000cd8 <__gnu_Unwind_Restore_WMMXC>:
 8000cd8:	4770      	bx	lr
 8000cda:	46c0      	nop			@ (mov r8, r8)

08000cdc <__gnu_Unwind_Save_WMMXC>:
 8000cdc:	4770      	bx	lr
 8000cde:	46c0      	nop			@ (mov r8, r8)

08000ce0 <_Unwind_RaiseException>:
 8000ce0:	b401      	push	{r0}
 8000ce2:	a801      	add	r0, sp, #4
 8000ce4:	b501      	push	{r0, lr}
 8000ce6:	b085      	sub	sp, #20
 8000ce8:	b4ff      	push	{r0, r1, r2, r3, r4, r5, r6, r7}
 8000cea:	a808      	add	r0, sp, #32
 8000cec:	4641      	mov	r1, r8
 8000cee:	464a      	mov	r2, r9
 8000cf0:	4653      	mov	r3, sl
 8000cf2:	465c      	mov	r4, fp
 8000cf4:	4665      	mov	r5, ip
 8000cf6:	c03e      	stmia	r0!, {r1, r2, r3, r4, r5}
 8000cf8:	a801      	add	r0, sp, #4
 8000cfa:	c83e      	ldmia	r0!, {r1, r2, r3, r4, r5}
 8000cfc:	980f      	ldr	r0, [sp, #60]	@ 0x3c
 8000cfe:	9000      	str	r0, [sp, #0]
 8000d00:	2300      	movs	r3, #0
 8000d02:	b40c      	push	{r2, r3}
 8000d04:	a901      	add	r1, sp, #4
 8000d06:	f7ff fbe9 	bl	80004dc <__gnu_Unwind_RaiseException>
 8000d0a:	9b10      	ldr	r3, [sp, #64]	@ 0x40
 8000d0c:	b012      	add	sp, #72	@ 0x48
 8000d0e:	4718      	bx	r3

08000d10 <_Unwind_Resume>:
 8000d10:	b401      	push	{r0}
 8000d12:	a801      	add	r0, sp, #4
 8000d14:	b501      	push	{r0, lr}
 8000d16:	b085      	sub	sp, #20
 8000d18:	b4ff      	push	{r0, r1, r2, r3, r4, r5, r6, r7}
 8000d1a:	a808      	add	r0, sp, #32
 8000d1c:	4641      	mov	r1, r8
 8000d1e:	464a      	mov	r2, r9
 8000d20:	4653      	mov	r3, sl
 8000d22:	465c      	mov	r4, fp
 8000d24:	4665      	mov	r5, ip
 8000d26:	c03e      	stmia	r0!, {r1, r2, r3, r4, r5}
 8000d28:	a801      	add	r0, sp, #4
 8000d2a:	c83e      	ldmia	r0!, {r1, r2, r3, r4, r5}
 8000d2c:	980f      	ldr	r0, [sp, #60]	@ 0x3c
 8000d2e:	9000      	str	r0, [sp, #0]
 8000d30:	2300      	movs	r3, #0
 8000d32:	b40c      	push	{r2, r3}
 8000d34:	a901      	add	r1, sp, #4
 8000d36:	f7ff fc03 	bl	8000540 <__gnu_Unwind_Resume>
 8000d3a:	9b10      	ldr	r3, [sp, #64]	@ 0x40
 8000d3c:	b012      	add	sp, #72	@ 0x48
 8000d3e:	4718      	bx	r3

08000d40 <_Unwind_Resume_or_Rethrow>:
 8000d40:	b401      	push	{r0}
 8000d42:	a801      	add	r0, sp, #4
 8000d44:	b501      	push	{r0, lr}
 8000d46:	b085      	sub	sp, #20
 8000d48:	b4ff      	push	{r0, r1, r2, r3, r4, r5, r6, r7}
 8000d4a:	a808      	add	r0, sp, #32
 8000d4c:	4641      	mov	r1, r8
 8000d4e:	464a      	mov	r2, r9
 8000d50:	4653      	mov	r3, sl
 8000d52:	465c      	mov	r4, fp
 8000d54:	4665      	mov	r5, ip
 8000d56:	c03e      	stmia	r0!, {r1, r2, r3, r4, r5}
 8000d58:	a801      	add	r0, sp, #4
 8000d5a:	c83e      	ldmia	r0!, {r1, r2, r3, r4, r5}
 8000d5c:	980f      	ldr	r0, [sp, #60]	@ 0x3c
 8000d5e:	9000      	str	r0, [sp, #0]
 8000d60:	2300      	movs	r3, #0
 8000d62:	b40c      	push	{r2, r3}
 8000d64:	a901      	add	r1, sp, #4
 8000d66:	f7ff fc0f 	bl	8000588 <__gnu_Unwind_Resume_or_Rethrow>
 8000d6a:	9b10      	ldr	r3, [sp, #64]	@ 0x40
 8000d6c:	b012      	add	sp, #72	@ 0x48
 8000d6e:	4718      	bx	r3

08000d70 <_Unwind_ForcedUnwind>:
 8000d70:	b401      	push	{r0}
 8000d72:	a801      	add	r0, sp, #4
 8000d74:	b501      	push	{r0, lr}
 8000d76:	b085      	sub	sp, #20
 8000d78:	b4ff      	push	{r0, r1, r2, r3, r4, r5, r6, r7}
 8000d7a:	a808      	add	r0, sp, #32
 8000d7c:	4641      	mov	r1, r8
 8000d7e:	464a      	mov	r2, r9
 8000d80:	4653      	mov	r3, sl
 8000d82:	465c      	mov	r4, fp
 8000d84:	4665      	mov	r5, ip
 8000d86:	c03e      	stmia	r0!, {r1, r2, r3, r4, r5}
 8000d88:	a801      	add	r0, sp, #4
 8000d8a:	c83e      	ldmia	r0!, {r1, r2, r3, r4, r5}
 8000d8c:	980f      	ldr	r0, [sp, #60]	@ 0x3c
 8000d8e:	9000      	str	r0, [sp, #0]
 8000d90:	2300      	movs	r3, #0
 8000d92:	b40c      	push	{r2, r3}
 8000d94:	ab01      	add	r3, sp, #4
 8000d96:	f7ff fbc9 	bl	800052c <__gnu_Unwind_ForcedUnwind>
 8000d9a:	9b10      	ldr	r3, [sp, #64]	@ 0x40
 8000d9c:	b012      	add	sp, #72	@ 0x48
 8000d9e:	4718      	bx	r3

08000da0 <_Unwind_Backtrace>:
 8000da0:	b401      	push	{r0}
 8000da2:	a801      	add	r0, sp, #4
 8000da4:	b501      	push	{r0, lr}
 8000da6:	b085      	sub	sp, #20
 8000da8:	b4ff      	push	{r0, r1, r2, r3, r4, r5, r6, r7}
 8000daa:	a808      	add	r0, sp, #32
 8000dac:	4641      	mov	r1, r8
 8000dae:	464a      	mov	r2, r9
 8000db0:	4653      	mov	r3, sl
 8000db2:	465c      	mov	r4, fp
 8000db4:	4665      	mov	r5, ip
 8000db6:	c03e      	stmia	r0!, {r1, r2, r3, r4, r5}
 8000db8:	a801      	add	r0, sp, #4
 8000dba:	c83e      	ldmia	r0!, {r1, r2, r3, r4, r5}
 8000dbc:	980f      	ldr	r0, [sp, #60]	@ 0x3c
 8000dbe:	9000      	str	r0, [sp, #0]
 8000dc0:	2300      	movs	r3, #0
 8000dc2:	b40c      	push	{r2, r3}
 8000dc4:	aa01      	add	r2, sp, #4
 8000dc6:	f7ff fc53 	bl	8000670 <__gnu_Unwind_Backtrace>
 8000dca:	9b10      	ldr	r3, [sp, #64]	@ 0x40
 8000dcc:	b012      	add	sp, #72	@ 0x48
 8000dce:	4718      	bx	r3

08000dd0 <next_unwind_byte>:
 8000dd0:	7a02      	ldrb	r2, [r0, #8]
 8000dd2:	0003      	movs	r3, r0
 8000dd4:	2a00      	cmp	r2, #0
 8000dd6:	d10b      	bne.n	8000df0 <next_unwind_byte+0x20>
 8000dd8:	7a42      	ldrb	r2, [r0, #9]
 8000dda:	2a00      	cmp	r2, #0
 8000ddc:	d00f      	beq.n	8000dfe <next_unwind_byte+0x2e>
 8000dde:	3a01      	subs	r2, #1
 8000de0:	7242      	strb	r2, [r0, #9]
 8000de2:	6842      	ldr	r2, [r0, #4]
 8000de4:	1d11      	adds	r1, r2, #4
 8000de6:	6041      	str	r1, [r0, #4]
 8000de8:	2103      	movs	r1, #3
 8000dea:	6812      	ldr	r2, [r2, #0]
 8000dec:	7201      	strb	r1, [r0, #8]
 8000dee:	e002      	b.n	8000df6 <next_unwind_byte+0x26>
 8000df0:	3a01      	subs	r2, #1
 8000df2:	7202      	strb	r2, [r0, #8]
 8000df4:	6802      	ldr	r2, [r0, #0]
 8000df6:	0e10      	lsrs	r0, r2, #24
 8000df8:	0212      	lsls	r2, r2, #8
 8000dfa:	601a      	str	r2, [r3, #0]
 8000dfc:	4770      	bx	lr
 8000dfe:	20b0      	movs	r0, #176	@ 0xb0
 8000e00:	e7fc      	b.n	8000dfc <next_unwind_byte+0x2c>
 8000e02:	46c0      	nop			@ (mov r8, r8)

08000e04 <_Unwind_GetGR.constprop.0>:
 8000e04:	b500      	push	{lr}
 8000e06:	b085      	sub	sp, #20
 8000e08:	ab03      	add	r3, sp, #12
 8000e0a:	9300      	str	r3, [sp, #0]
 8000e0c:	220c      	movs	r2, #12
 8000e0e:	2300      	movs	r3, #0
 8000e10:	2100      	movs	r1, #0
 8000e12:	f7ff fbd1 	bl	80005b8 <_Unwind_VRS_Get>
 8000e16:	9803      	ldr	r0, [sp, #12]
 8000e18:	b005      	add	sp, #20
 8000e1a:	bd00      	pop	{pc}

08000e1c <unwind_UCB_from_context>:
 8000e1c:	b510      	push	{r4, lr}
 8000e1e:	f7ff fff1 	bl	8000e04 <_Unwind_GetGR.constprop.0>
 8000e22:	bd10      	pop	{r4, pc}

08000e24 <__gnu_unwind_execute>:
 8000e24:	b5f0      	push	{r4, r5, r6, r7, lr}
 8000e26:	2300      	movs	r3, #0
 8000e28:	4645      	mov	r5, r8
 8000e2a:	4657      	mov	r7, sl
 8000e2c:	464e      	mov	r6, r9
 8000e2e:	46de      	mov	lr, fp
 8000e30:	4698      	mov	r8, r3
 8000e32:	b5e0      	push	{r5, r6, r7, lr}
 8000e34:	0006      	movs	r6, r0
 8000e36:	000d      	movs	r5, r1
 8000e38:	270f      	movs	r7, #15
 8000e3a:	b085      	sub	sp, #20
 8000e3c:	0028      	movs	r0, r5
 8000e3e:	f7ff ffc7 	bl	8000dd0 <next_unwind_byte>
 8000e42:	0004      	movs	r4, r0
 8000e44:	28b0      	cmp	r0, #176	@ 0xb0
 8000e46:	d100      	bne.n	8000e4a <__gnu_unwind_execute+0x26>
 8000e48:	e129      	b.n	800109e <__gnu_unwind_execute+0x27a>
 8000e4a:	0603      	lsls	r3, r0, #24
 8000e4c:	d538      	bpl.n	8000ec0 <__gnu_unwind_execute+0x9c>
 8000e4e:	0003      	movs	r3, r0
 8000e50:	43bb      	bics	r3, r7
 8000e52:	b2db      	uxtb	r3, r3
 8000e54:	2ba0      	cmp	r3, #160	@ 0xa0
 8000e56:	d100      	bne.n	8000e5a <__gnu_unwind_execute+0x36>
 8000e58:	e091      	b.n	8000f7e <__gnu_unwind_execute+0x15a>
 8000e5a:	d812      	bhi.n	8000e82 <__gnu_unwind_execute+0x5e>
 8000e5c:	2b80      	cmp	r3, #128	@ 0x80
 8000e5e:	d069      	beq.n	8000f34 <__gnu_unwind_execute+0x110>
 8000e60:	2b90      	cmp	r3, #144	@ 0x90
 8000e62:	d125      	bne.n	8000eb0 <__gnu_unwind_execute+0x8c>
 8000e64:	230d      	movs	r3, #13
 8000e66:	4003      	ands	r3, r0
 8000e68:	2b0d      	cmp	r3, #13
 8000e6a:	d021      	beq.n	8000eb0 <__gnu_unwind_execute+0x8c>
 8000e6c:	220f      	movs	r2, #15
 8000e6e:	ac02      	add	r4, sp, #8
 8000e70:	4002      	ands	r2, r0
 8000e72:	2300      	movs	r3, #0
 8000e74:	2100      	movs	r1, #0
 8000e76:	0030      	movs	r0, r6
 8000e78:	9400      	str	r4, [sp, #0]
 8000e7a:	f7ff fb9d 	bl	80005b8 <_Unwind_VRS_Get>
 8000e7e:	9400      	str	r4, [sp, #0]
 8000e80:	e033      	b.n	8000eea <__gnu_unwind_execute+0xc6>
 8000e82:	2bb0      	cmp	r3, #176	@ 0xb0
 8000e84:	d100      	bne.n	8000e88 <__gnu_unwind_execute+0x64>
 8000e86:	e070      	b.n	8000f6a <__gnu_unwind_execute+0x146>
 8000e88:	2bc0      	cmp	r3, #192	@ 0xc0
 8000e8a:	d038      	beq.n	8000efe <__gnu_unwind_execute+0xda>
 8000e8c:	2207      	movs	r2, #7
 8000e8e:	0003      	movs	r3, r0
 8000e90:	4393      	bics	r3, r2
 8000e92:	b2db      	uxtb	r3, r3
 8000e94:	2bd0      	cmp	r3, #208	@ 0xd0
 8000e96:	d10b      	bne.n	8000eb0 <__gnu_unwind_execute+0x8c>
 8000e98:	2380      	movs	r3, #128	@ 0x80
 8000e9a:	4002      	ands	r2, r0
 8000e9c:	3201      	adds	r2, #1
 8000e9e:	031b      	lsls	r3, r3, #12
 8000ea0:	431a      	orrs	r2, r3
 8000ea2:	2101      	movs	r1, #1
 8000ea4:	2305      	movs	r3, #5
 8000ea6:	0030      	movs	r0, r6
 8000ea8:	f7ff fd96 	bl	80009d8 <_Unwind_VRS_Pop>
 8000eac:	2800      	cmp	r0, #0
 8000eae:	d0c5      	beq.n	8000e3c <__gnu_unwind_execute+0x18>
 8000eb0:	2009      	movs	r0, #9
 8000eb2:	b005      	add	sp, #20
 8000eb4:	bcf0      	pop	{r4, r5, r6, r7}
 8000eb6:	46bb      	mov	fp, r7
 8000eb8:	46b2      	mov	sl, r6
 8000eba:	46a9      	mov	r9, r5
 8000ebc:	46a0      	mov	r8, r4
 8000ebe:	bdf0      	pop	{r4, r5, r6, r7, pc}
 8000ec0:	23ff      	movs	r3, #255	@ 0xff
 8000ec2:	0082      	lsls	r2, r0, #2
 8000ec4:	4013      	ands	r3, r2
 8000ec6:	3304      	adds	r3, #4
 8000ec8:	469a      	mov	sl, r3
 8000eca:	ab02      	add	r3, sp, #8
 8000ecc:	9300      	str	r3, [sp, #0]
 8000ece:	4699      	mov	r9, r3
 8000ed0:	220d      	movs	r2, #13
 8000ed2:	2300      	movs	r3, #0
 8000ed4:	2100      	movs	r1, #0
 8000ed6:	0030      	movs	r0, r6
 8000ed8:	f7ff fb6e 	bl	80005b8 <_Unwind_VRS_Get>
 8000edc:	9b02      	ldr	r3, [sp, #8]
 8000ede:	0664      	lsls	r4, r4, #25
 8000ee0:	d40a      	bmi.n	8000ef8 <__gnu_unwind_execute+0xd4>
 8000ee2:	4453      	add	r3, sl
 8000ee4:	9302      	str	r3, [sp, #8]
 8000ee6:	464b      	mov	r3, r9
 8000ee8:	9300      	str	r3, [sp, #0]
 8000eea:	2300      	movs	r3, #0
 8000eec:	220d      	movs	r2, #13
 8000eee:	2100      	movs	r1, #0
 8000ef0:	0030      	movs	r0, r6
 8000ef2:	f7ff fb8f 	bl	8000614 <_Unwind_VRS_Set>
 8000ef6:	e7a1      	b.n	8000e3c <__gnu_unwind_execute+0x18>
 8000ef8:	4652      	mov	r2, sl
 8000efa:	1a9b      	subs	r3, r3, r2
 8000efc:	e7f2      	b.n	8000ee4 <__gnu_unwind_execute+0xc0>
 8000efe:	28c6      	cmp	r0, #198	@ 0xc6
 8000f00:	d100      	bne.n	8000f04 <__gnu_unwind_execute+0xe0>
 8000f02:	e0ad      	b.n	8001060 <__gnu_unwind_execute+0x23c>
 8000f04:	28c7      	cmp	r0, #199	@ 0xc7
 8000f06:	d100      	bne.n	8000f0a <__gnu_unwind_execute+0xe6>
 8000f08:	e0ce      	b.n	80010a8 <__gnu_unwind_execute+0x284>
 8000f0a:	23f8      	movs	r3, #248	@ 0xf8
 8000f0c:	4003      	ands	r3, r0
 8000f0e:	2bc0      	cmp	r3, #192	@ 0xc0
 8000f10:	d100      	bne.n	8000f14 <__gnu_unwind_execute+0xf0>
 8000f12:	e0db      	b.n	80010cc <__gnu_unwind_execute+0x2a8>
 8000f14:	28c8      	cmp	r0, #200	@ 0xc8
 8000f16:	d100      	bne.n	8000f1a <__gnu_unwind_execute+0xf6>
 8000f18:	e0de      	b.n	80010d8 <__gnu_unwind_execute+0x2b4>
 8000f1a:	28c9      	cmp	r0, #201	@ 0xc9
 8000f1c:	d1c8      	bne.n	8000eb0 <__gnu_unwind_execute+0x8c>
 8000f1e:	0028      	movs	r0, r5
 8000f20:	f7ff ff56 	bl	8000dd0 <next_unwind_byte>
 8000f24:	22f0      	movs	r2, #240	@ 0xf0
 8000f26:	0303      	lsls	r3, r0, #12
 8000f28:	0312      	lsls	r2, r2, #12
 8000f2a:	4013      	ands	r3, r2
 8000f2c:	220f      	movs	r2, #15
 8000f2e:	4002      	ands	r2, r0
 8000f30:	3201      	adds	r2, #1
 8000f32:	e7b5      	b.n	8000ea0 <__gnu_unwind_execute+0x7c>
 8000f34:	0204      	lsls	r4, r0, #8
 8000f36:	0028      	movs	r0, r5
 8000f38:	f7ff ff4a 	bl	8000dd0 <next_unwind_byte>
 8000f3c:	4320      	orrs	r0, r4
 8000f3e:	2480      	movs	r4, #128	@ 0x80
 8000f40:	0224      	lsls	r4, r4, #8
 8000f42:	42a0      	cmp	r0, r4
 8000f44:	d0b4      	beq.n	8000eb0 <__gnu_unwind_execute+0x8c>
 8000f46:	0103      	lsls	r3, r0, #4
 8000f48:	0500      	lsls	r0, r0, #20
 8000f4a:	4699      	mov	r9, r3
 8000f4c:	0c02      	lsrs	r2, r0, #16
 8000f4e:	2300      	movs	r3, #0
 8000f50:	2100      	movs	r1, #0
 8000f52:	0030      	movs	r0, r6
 8000f54:	f7ff fd40 	bl	80009d8 <_Unwind_VRS_Pop>
 8000f58:	2800      	cmp	r0, #0
 8000f5a:	d1a9      	bne.n	8000eb0 <__gnu_unwind_execute+0x8c>
 8000f5c:	464b      	mov	r3, r9
 8000f5e:	4223      	tst	r3, r4
 8000f60:	d100      	bne.n	8000f64 <__gnu_unwind_execute+0x140>
 8000f62:	e76b      	b.n	8000e3c <__gnu_unwind_execute+0x18>
 8000f64:	2301      	movs	r3, #1
 8000f66:	4698      	mov	r8, r3
 8000f68:	e768      	b.n	8000e3c <__gnu_unwind_execute+0x18>
 8000f6a:	0003      	movs	r3, r0
 8000f6c:	334f      	adds	r3, #79	@ 0x4f
 8000f6e:	b2db      	uxtb	r3, r3
 8000f70:	2b04      	cmp	r3, #4
 8000f72:	d900      	bls.n	8000f76 <__gnu_unwind_execute+0x152>
 8000f74:	e088      	b.n	8001088 <__gnu_unwind_execute+0x264>
 8000f76:	4a68      	ldr	r2, [pc, #416]	@ (8001118 <__gnu_unwind_execute+0x2f4>)
 8000f78:	009b      	lsls	r3, r3, #2
 8000f7a:	58d3      	ldr	r3, [r2, r3]
 8000f7c:	469f      	mov	pc, r3
 8000f7e:	21ff      	movs	r1, #255	@ 0xff
 8000f80:	2307      	movs	r3, #7
 8000f82:	0109      	lsls	r1, r1, #4
 8000f84:	000a      	movs	r2, r1
 8000f86:	4383      	bics	r3, r0
 8000f88:	411a      	asrs	r2, r3
 8000f8a:	400a      	ands	r2, r1
 8000f8c:	0724      	lsls	r4, r4, #28
 8000f8e:	d502      	bpl.n	8000f96 <__gnu_unwind_execute+0x172>
 8000f90:	2380      	movs	r3, #128	@ 0x80
 8000f92:	01db      	lsls	r3, r3, #7
 8000f94:	431a      	orrs	r2, r3
 8000f96:	2300      	movs	r3, #0
 8000f98:	2100      	movs	r1, #0
 8000f9a:	0030      	movs	r0, r6
 8000f9c:	f7ff fd1c 	bl	80009d8 <_Unwind_VRS_Pop>
 8000fa0:	2800      	cmp	r0, #0
 8000fa2:	d100      	bne.n	8000fa6 <__gnu_unwind_execute+0x182>
 8000fa4:	e74a      	b.n	8000e3c <__gnu_unwind_execute+0x18>
 8000fa6:	e783      	b.n	8000eb0 <__gnu_unwind_execute+0x8c>
 8000fa8:	0028      	movs	r0, r5
 8000faa:	f7ff ff11 	bl	8000dd0 <next_unwind_byte>
 8000fae:	1e43      	subs	r3, r0, #1
 8000fb0:	b2db      	uxtb	r3, r3
 8000fb2:	0002      	movs	r2, r0
 8000fb4:	2b0e      	cmp	r3, #14
 8000fb6:	d9ee      	bls.n	8000f96 <__gnu_unwind_execute+0x172>
 8000fb8:	e77a      	b.n	8000eb0 <__gnu_unwind_execute+0x8c>
 8000fba:	ab03      	add	r3, sp, #12
 8000fbc:	9300      	str	r3, [sp, #0]
 8000fbe:	220d      	movs	r2, #13
 8000fc0:	2300      	movs	r3, #0
 8000fc2:	2100      	movs	r1, #0
 8000fc4:	0030      	movs	r0, r6
 8000fc6:	f7ff faf7 	bl	80005b8 <_Unwind_VRS_Get>
 8000fca:	e737      	b.n	8000e3c <__gnu_unwind_execute+0x18>
 8000fcc:	2300      	movs	r3, #0
 8000fce:	2200      	movs	r2, #0
 8000fd0:	2105      	movs	r1, #5
 8000fd2:	0030      	movs	r0, r6
 8000fd4:	f7ff fd00 	bl	80009d8 <_Unwind_VRS_Pop>
 8000fd8:	2800      	cmp	r0, #0
 8000fda:	d100      	bne.n	8000fde <__gnu_unwind_execute+0x1ba>
 8000fdc:	e72e      	b.n	8000e3c <__gnu_unwind_execute+0x18>
 8000fde:	e767      	b.n	8000eb0 <__gnu_unwind_execute+0x8c>
 8000fe0:	0028      	movs	r0, r5
 8000fe2:	f7ff fef5 	bl	8000dd0 <next_unwind_byte>
 8000fe6:	22f0      	movs	r2, #240	@ 0xf0
 8000fe8:	0303      	lsls	r3, r0, #12
 8000fea:	0312      	lsls	r2, r2, #12
 8000fec:	4013      	ands	r3, r2
 8000fee:	220f      	movs	r2, #15
 8000ff0:	4002      	ands	r2, r0
 8000ff2:	3201      	adds	r2, #1
 8000ff4:	431a      	orrs	r2, r3
 8000ff6:	2101      	movs	r1, #1
 8000ff8:	2301      	movs	r3, #1
 8000ffa:	0030      	movs	r0, r6
 8000ffc:	f7ff fcec 	bl	80009d8 <_Unwind_VRS_Pop>
 8001000:	2800      	cmp	r0, #0
 8001002:	d100      	bne.n	8001006 <__gnu_unwind_execute+0x1e2>
 8001004:	e71a      	b.n	8000e3c <__gnu_unwind_execute+0x18>
 8001006:	e753      	b.n	8000eb0 <__gnu_unwind_execute+0x8c>
 8001008:	ab02      	add	r3, sp, #8
 800100a:	220d      	movs	r2, #13
 800100c:	2100      	movs	r1, #0
 800100e:	9300      	str	r3, [sp, #0]
 8001010:	4699      	mov	r9, r3
 8001012:	0030      	movs	r0, r6
 8001014:	2300      	movs	r3, #0
 8001016:	f7ff facf 	bl	80005b8 <_Unwind_VRS_Get>
 800101a:	0028      	movs	r0, r5
 800101c:	f7ff fed8 	bl	8000dd0 <next_unwind_byte>
 8001020:	9c02      	ldr	r4, [sp, #8]
 8001022:	0603      	lsls	r3, r0, #24
 8001024:	d574      	bpl.n	8001110 <__gnu_unwind_execute+0x2ec>
 8001026:	2302      	movs	r3, #2
 8001028:	469a      	mov	sl, r3
 800102a:	337d      	adds	r3, #125	@ 0x7d
 800102c:	469b      	mov	fp, r3
 800102e:	465b      	mov	r3, fp
 8001030:	4018      	ands	r0, r3
 8001032:	4653      	mov	r3, sl
 8001034:	4098      	lsls	r0, r3
 8001036:	2307      	movs	r3, #7
 8001038:	469c      	mov	ip, r3
 800103a:	1824      	adds	r4, r4, r0
 800103c:	0028      	movs	r0, r5
 800103e:	9402      	str	r4, [sp, #8]
 8001040:	44e2      	add	sl, ip
 8001042:	f7ff fec5 	bl	8000dd0 <next_unwind_byte>
 8001046:	0603      	lsls	r3, r0, #24
 8001048:	d4f1      	bmi.n	800102e <__gnu_unwind_execute+0x20a>
 800104a:	2381      	movs	r3, #129	@ 0x81
 800104c:	009b      	lsls	r3, r3, #2
 800104e:	469c      	mov	ip, r3
 8001050:	4653      	mov	r3, sl
 8001052:	4098      	lsls	r0, r3
 8001054:	464b      	mov	r3, r9
 8001056:	4464      	add	r4, ip
 8001058:	1824      	adds	r4, r4, r0
 800105a:	9402      	str	r4, [sp, #8]
 800105c:	9300      	str	r3, [sp, #0]
 800105e:	e744      	b.n	8000eea <__gnu_unwind_execute+0xc6>
 8001060:	0028      	movs	r0, r5
 8001062:	f7ff feb5 	bl	8000dd0 <next_unwind_byte>
 8001066:	22f0      	movs	r2, #240	@ 0xf0
 8001068:	0303      	lsls	r3, r0, #12
 800106a:	0312      	lsls	r2, r2, #12
 800106c:	4013      	ands	r3, r2
 800106e:	220f      	movs	r2, #15
 8001070:	4002      	ands	r2, r0
 8001072:	3201      	adds	r2, #1
 8001074:	431a      	orrs	r2, r3
 8001076:	2103      	movs	r1, #3
 8001078:	2303      	movs	r3, #3
 800107a:	0030      	movs	r0, r6
 800107c:	f7ff fcac 	bl	80009d8 <_Unwind_VRS_Pop>
 8001080:	2800      	cmp	r0, #0
 8001082:	d100      	bne.n	8001086 <__gnu_unwind_execute+0x262>
 8001084:	e6da      	b.n	8000e3c <__gnu_unwind_execute+0x18>
 8001086:	e713      	b.n	8000eb0 <__gnu_unwind_execute+0x8c>
 8001088:	23fc      	movs	r3, #252	@ 0xfc
 800108a:	4003      	ands	r3, r0
 800108c:	2bb4      	cmp	r3, #180	@ 0xb4
 800108e:	d100      	bne.n	8001092 <__gnu_unwind_execute+0x26e>
 8001090:	e70e      	b.n	8000eb0 <__gnu_unwind_execute+0x8c>
 8001092:	2307      	movs	r3, #7
 8001094:	2280      	movs	r2, #128	@ 0x80
 8001096:	4003      	ands	r3, r0
 8001098:	3301      	adds	r3, #1
 800109a:	0312      	lsls	r2, r2, #12
 800109c:	e7aa      	b.n	8000ff4 <__gnu_unwind_execute+0x1d0>
 800109e:	4643      	mov	r3, r8
 80010a0:	2b00      	cmp	r3, #0
 80010a2:	d025      	beq.n	80010f0 <__gnu_unwind_execute+0x2cc>
 80010a4:	2000      	movs	r0, #0
 80010a6:	e704      	b.n	8000eb2 <__gnu_unwind_execute+0x8e>
 80010a8:	0028      	movs	r0, r5
 80010aa:	f7ff fe91 	bl	8000dd0 <next_unwind_byte>
 80010ae:	1e43      	subs	r3, r0, #1
 80010b0:	b2db      	uxtb	r3, r3
 80010b2:	0002      	movs	r2, r0
 80010b4:	2b0e      	cmp	r3, #14
 80010b6:	d900      	bls.n	80010ba <__gnu_unwind_execute+0x296>
 80010b8:	e6fa      	b.n	8000eb0 <__gnu_unwind_execute+0x8c>
 80010ba:	2300      	movs	r3, #0
 80010bc:	2104      	movs	r1, #4
 80010be:	0030      	movs	r0, r6
 80010c0:	f7ff fc8a 	bl	80009d8 <_Unwind_VRS_Pop>
 80010c4:	2800      	cmp	r0, #0
 80010c6:	d100      	bne.n	80010ca <__gnu_unwind_execute+0x2a6>
 80010c8:	e6b8      	b.n	8000e3c <__gnu_unwind_execute+0x18>
 80010ca:	e6f1      	b.n	8000eb0 <__gnu_unwind_execute+0x8c>
 80010cc:	22a0      	movs	r2, #160	@ 0xa0
 80010ce:	3bb1      	subs	r3, #177	@ 0xb1
 80010d0:	4003      	ands	r3, r0
 80010d2:	3301      	adds	r3, #1
 80010d4:	0312      	lsls	r2, r2, #12
 80010d6:	e7cd      	b.n	8001074 <__gnu_unwind_execute+0x250>
 80010d8:	0028      	movs	r0, r5
 80010da:	f7ff fe79 	bl	8000dd0 <next_unwind_byte>
 80010de:	230f      	movs	r3, #15
 80010e0:	0002      	movs	r2, r0
 80010e2:	439a      	bics	r2, r3
 80010e4:	b2d2      	uxtb	r2, r2
 80010e6:	3210      	adds	r2, #16
 80010e8:	4003      	ands	r3, r0
 80010ea:	0312      	lsls	r2, r2, #12
 80010ec:	3301      	adds	r3, #1
 80010ee:	e6d7      	b.n	8000ea0 <__gnu_unwind_execute+0x7c>
 80010f0:	ac02      	add	r4, sp, #8
 80010f2:	220e      	movs	r2, #14
 80010f4:	2100      	movs	r1, #0
 80010f6:	0030      	movs	r0, r6
 80010f8:	9400      	str	r4, [sp, #0]
 80010fa:	f7ff fa5d 	bl	80005b8 <_Unwind_VRS_Get>
 80010fe:	2300      	movs	r3, #0
 8001100:	220f      	movs	r2, #15
 8001102:	2100      	movs	r1, #0
 8001104:	0030      	movs	r0, r6
 8001106:	9400      	str	r4, [sp, #0]
 8001108:	f7ff fa84 	bl	8000614 <_Unwind_VRS_Set>
 800110c:	2000      	movs	r0, #0
 800110e:	e6d0      	b.n	8000eb2 <__gnu_unwind_execute+0x8e>
 8001110:	2302      	movs	r3, #2
 8001112:	469a      	mov	sl, r3
 8001114:	e799      	b.n	800104a <__gnu_unwind_execute+0x226>
 8001116:	46c0      	nop			@ (mov r8, r8)
 8001118:	08003858 	.word	0x08003858

0800111c <__gnu_unwind_frame>:
 800111c:	0003      	movs	r3, r0
 800111e:	b500      	push	{lr}
 8001120:	6cda      	ldr	r2, [r3, #76]	@ 0x4c
 8001122:	b085      	sub	sp, #20
 8001124:	6853      	ldr	r3, [r2, #4]
 8001126:	0008      	movs	r0, r1
 8001128:	3208      	adds	r2, #8
 800112a:	0219      	lsls	r1, r3, #8
 800112c:	9101      	str	r1, [sp, #4]
 800112e:	9202      	str	r2, [sp, #8]
 8001130:	4669      	mov	r1, sp
 8001132:	2203      	movs	r2, #3
 8001134:	0e1b      	lsrs	r3, r3, #24
 8001136:	730a      	strb	r2, [r1, #12]
 8001138:	734b      	strb	r3, [r1, #13]
 800113a:	a901      	add	r1, sp, #4
 800113c:	f7ff fe72 	bl	8000e24 <__gnu_unwind_execute>
 8001140:	b005      	add	sp, #20
 8001142:	bd00      	pop	{pc}

08001144 <_Unwind_GetRegionStart>:
 8001144:	b510      	push	{r4, lr}
 8001146:	f7ff fe69 	bl	8000e1c <unwind_UCB_from_context>
 800114a:	6c80      	ldr	r0, [r0, #72]	@ 0x48
 800114c:	bd10      	pop	{r4, pc}
 800114e:	46c0      	nop			@ (mov r8, r8)

08001150 <_Unwind_GetLanguageSpecificData>:
 8001150:	b510      	push	{r4, lr}
 8001152:	f7ff fe63 	bl	8000e1c <unwind_UCB_from_context>
 8001156:	6cc0      	ldr	r0, [r0, #76]	@ 0x4c
 8001158:	79c3      	ldrb	r3, [r0, #7]
 800115a:	009b      	lsls	r3, r3, #2
 800115c:	3308      	adds	r3, #8
 800115e:	18c0      	adds	r0, r0, r3
 8001160:	bd10      	pop	{r4, pc}
 8001162:	46c0      	nop			@ (mov r8, r8)

08001164 <do_instruction>:
 8001164:	b510      	push	{r4, lr}
 8001166:	2901      	cmp	r1, #1
 8001168:	d01a      	beq.n	80011a0 <do_instruction+0x3c>
 800116a:	2902      	cmp	r1, #2
 800116c:	d004      	beq.n	8001178 <do_instruction+0x14>
 800116e:	2900      	cmp	r1, #0
 8001170:	d114      	bne.n	800119c <do_instruction+0x38>
 8001172:	f000 f829 	bl	80011c8 <Check_I2C_to_ESP32>
 8001176:	bd10      	pop	{r4, pc}
 8001178:	2180      	movs	r1, #128	@ 0x80
 800117a:	20a0      	movs	r0, #160	@ 0xa0
 800117c:	0149      	lsls	r1, r1, #5
 800117e:	05c0      	lsls	r0, r0, #23
 8001180:	f000 ff70 	bl	8002064 <HAL_GPIO_TogglePin>
 8001184:	21fa      	movs	r1, #250	@ 0xfa
 8001186:	2080      	movs	r0, #128	@ 0x80
 8001188:	0049      	lsls	r1, r1, #1
 800118a:	0080      	lsls	r0, r0, #2
 800118c:	f000 f9d2 	bl	8001534 <move_anticlockwise>
 8001190:	2180      	movs	r1, #128	@ 0x80
 8001192:	20a0      	movs	r0, #160	@ 0xa0
 8001194:	0149      	lsls	r1, r1, #5
 8001196:	05c0      	lsls	r0, r0, #23
 8001198:	f000 ff64 	bl	8002064 <HAL_GPIO_TogglePin>
 800119c:	2001      	movs	r0, #1
 800119e:	e7ea      	b.n	8001176 <do_instruction+0x12>
 80011a0:	2180      	movs	r1, #128	@ 0x80
 80011a2:	20a0      	movs	r0, #160	@ 0xa0
 80011a4:	0109      	lsls	r1, r1, #4
 80011a6:	05c0      	lsls	r0, r0, #23
 80011a8:	f000 ff5c 	bl	8002064 <HAL_GPIO_TogglePin>
 80011ac:	21fa      	movs	r1, #250	@ 0xfa
 80011ae:	2080      	movs	r0, #128	@ 0x80
 80011b0:	0049      	lsls	r1, r1, #1
 80011b2:	0080      	lsls	r0, r0, #2
 80011b4:	f000 fabe 	bl	8001734 <move_clockwise>
 80011b8:	2180      	movs	r1, #128	@ 0x80
 80011ba:	20a0      	movs	r0, #160	@ 0xa0
 80011bc:	0109      	lsls	r1, r1, #4
 80011be:	05c0      	lsls	r0, r0, #23
 80011c0:	f000 ff50 	bl	8002064 <HAL_GPIO_TogglePin>
 80011c4:	2001      	movs	r0, #1
 80011c6:	e7d6      	b.n	8001176 <do_instruction+0x12>

080011c8 <Check_I2C_to_ESP32>:
 80011c8:	b530      	push	{r4, r5, lr}
 80011ca:	b08b      	sub	sp, #44	@ 0x2c
 80011cc:	0004      	movs	r4, r0
 80011ce:	f000 fd0f 	bl	8001bf0 <HAL_GetDEVID>
 80011d2:	9001      	str	r0, [sp, #4]
 80011d4:	f000 fd14 	bl	8001c00 <HAL_GetUIDw0>
 80011d8:	9002      	str	r0, [sp, #8]
 80011da:	f000 fd17 	bl	8001c0c <HAL_GetUIDw1>
 80011de:	9003      	str	r0, [sp, #12]
 80011e0:	f000 fd1a 	bl	8001c18 <HAL_GetUIDw2>
 80011e4:	ad05      	add	r5, sp, #20
 80011e6:	9004      	str	r0, [sp, #16]
 80011e8:	702c      	strb	r4, [r5, #0]
 80011ea:	2c00      	cmp	r4, #0
 80011ec:	d115      	bne.n	800121a <Check_I2C_to_ESP32+0x52>
 80011ee:	002b      	movs	r3, r5
 80011f0:	a901      	add	r1, sp, #4
 80011f2:	ac09      	add	r4, sp, #36	@ 0x24
 80011f4:	c904      	ldmia	r1!, {r2}
 80011f6:	0a10      	lsrs	r0, r2, #8
 80011f8:	705a      	strb	r2, [r3, #1]
 80011fa:	7098      	strb	r0, [r3, #2]
 80011fc:	0c10      	lsrs	r0, r2, #16
 80011fe:	0e12      	lsrs	r2, r2, #24
 8001200:	70d8      	strb	r0, [r3, #3]
 8001202:	711a      	strb	r2, [r3, #4]
 8001204:	3304      	adds	r3, #4
 8001206:	42a3      	cmp	r3, r4
 8001208:	d1f4      	bne.n	80011f4 <Check_I2C_to_ESP32+0x2c>
 800120a:	2211      	movs	r2, #17
 800120c:	0029      	movs	r1, r5
 800120e:	4b06      	ldr	r3, [pc, #24]	@ (8001228 <Check_I2C_to_ESP32+0x60>)
 8001210:	4806      	ldr	r0, [pc, #24]	@ (800122c <Check_I2C_to_ESP32+0x64>)
 8001212:	f001 f8e1 	bl	80023d8 <HAL_I2C_Slave_Transmit>
 8001216:	b00b      	add	sp, #44	@ 0x2c
 8001218:	bd30      	pop	{r4, r5, pc}
 800121a:	2015      	movs	r0, #21
 800121c:	2210      	movs	r2, #16
 800121e:	2100      	movs	r1, #0
 8001220:	4468      	add	r0, sp
 8001222:	f002 fa75 	bl	8003710 <memset>
 8001226:	e7f0      	b.n	800120a <Check_I2C_to_ESP32+0x42>
 8001228:	00002710 	.word	0x00002710
 800122c:	20000118 	.word	0x20000118

08001230 <SystemClock_Config>:
 8001230:	b500      	push	{lr}
 8001232:	b08d      	sub	sp, #52	@ 0x34
 8001234:	2218      	movs	r2, #24
 8001236:	2100      	movs	r1, #0
 8001238:	a806      	add	r0, sp, #24
 800123a:	f002 fa69 	bl	8003710 <memset>
 800123e:	2214      	movs	r2, #20
 8001240:	2100      	movs	r1, #0
 8001242:	4668      	mov	r0, sp
 8001244:	f002 fa64 	bl	8003710 <memset>
 8001248:	2107      	movs	r1, #7
 800124a:	4a13      	ldr	r2, [pc, #76]	@ (8001298 <SystemClock_Config+0x68>)
 800124c:	a805      	add	r0, sp, #20
 800124e:	6813      	ldr	r3, [r2, #0]
 8001250:	438b      	bics	r3, r1
 8001252:	6013      	str	r3, [r2, #0]
 8001254:	2302      	movs	r3, #2
 8001256:	9305      	str	r3, [sp, #20]
 8001258:	33fe      	adds	r3, #254	@ 0xfe
 800125a:	9308      	str	r3, [sp, #32]
 800125c:	2380      	movs	r3, #128	@ 0x80
 800125e:	015b      	lsls	r3, r3, #5
 8001260:	9309      	str	r3, [sp, #36]	@ 0x24
 8001262:	2340      	movs	r3, #64	@ 0x40
 8001264:	930a      	str	r3, [sp, #40]	@ 0x28
 8001266:	f001 fdc3 	bl	8002df0 <HAL_RCC_OscConfig>
 800126a:	2800      	cmp	r0, #0
 800126c:	d001      	beq.n	8001272 <SystemClock_Config+0x42>
 800126e:	b672      	cpsid	i
 8001270:	e7fe      	b.n	8001270 <SystemClock_Config+0x40>
 8001272:	2207      	movs	r2, #7
 8001274:	2300      	movs	r3, #0
 8001276:	9200      	str	r2, [sp, #0]
 8001278:	9301      	str	r3, [sp, #4]
 800127a:	2200      	movs	r2, #0
 800127c:	2300      	movs	r3, #0
 800127e:	9004      	str	r0, [sp, #16]
 8001280:	2100      	movs	r1, #0
 8001282:	4668      	mov	r0, sp
 8001284:	9202      	str	r2, [sp, #8]
 8001286:	9303      	str	r3, [sp, #12]
 8001288:	f001 ff28 	bl	80030dc <HAL_RCC_ClockConfig>
 800128c:	2800      	cmp	r0, #0
 800128e:	d001      	beq.n	8001294 <SystemClock_Config+0x64>
 8001290:	b672      	cpsid	i
 8001292:	e7fe      	b.n	8001292 <SystemClock_Config+0x62>
 8001294:	b00d      	add	sp, #52	@ 0x34
 8001296:	bd00      	pop	{pc}
 8001298:	40022000 	.word	0x40022000

0800129c <main>:
 800129c:	b5f0      	push	{r4, r5, r6, r7, lr}
 800129e:	46c6      	mov	lr, r8
 80012a0:	b500      	push	{lr}
 80012a2:	b08e      	sub	sp, #56	@ 0x38
 80012a4:	f000 fc74 	bl	8001b90 <HAL_Init>
 80012a8:	f7ff ffc2 	bl	8001230 <SystemClock_Config>
 80012ac:	2214      	movs	r2, #20
 80012ae:	2100      	movs	r1, #0
 80012b0:	a808      	add	r0, sp, #32
 80012b2:	f002 fa2d 	bl	8003710 <memset>
 80012b6:	2202      	movs	r2, #2
 80012b8:	4b76      	ldr	r3, [pc, #472]	@ (8001494 <main+0x1f8>)
 80012ba:	2601      	movs	r6, #1
 80012bc:	6b59      	ldr	r1, [r3, #52]	@ 0x34
 80012be:	20a0      	movs	r0, #160	@ 0xa0
 80012c0:	4311      	orrs	r1, r2
 80012c2:	6359      	str	r1, [r3, #52]	@ 0x34
 80012c4:	6b59      	ldr	r1, [r3, #52]	@ 0x34
 80012c6:	4c74      	ldr	r4, [pc, #464]	@ (8001498 <main+0x1fc>)
 80012c8:	400a      	ands	r2, r1
 80012ca:	9201      	str	r2, [sp, #4]
 80012cc:	9a01      	ldr	r2, [sp, #4]
 80012ce:	2204      	movs	r2, #4
 80012d0:	6b59      	ldr	r1, [r3, #52]	@ 0x34
 80012d2:	05c0      	lsls	r0, r0, #23
 80012d4:	4311      	orrs	r1, r2
 80012d6:	6359      	str	r1, [r3, #52]	@ 0x34
 80012d8:	6b59      	ldr	r1, [r3, #52]	@ 0x34
 80012da:	2500      	movs	r5, #0
 80012dc:	400a      	ands	r2, r1
 80012de:	9202      	str	r2, [sp, #8]
 80012e0:	9a02      	ldr	r2, [sp, #8]
 80012e2:	6b5a      	ldr	r2, [r3, #52]	@ 0x34
 80012e4:	0021      	movs	r1, r4
 80012e6:	4332      	orrs	r2, r6
 80012e8:	635a      	str	r2, [r3, #52]	@ 0x34
 80012ea:	6b5b      	ldr	r3, [r3, #52]	@ 0x34
 80012ec:	2200      	movs	r2, #0
 80012ee:	4033      	ands	r3, r6
 80012f0:	9303      	str	r3, [sp, #12]
 80012f2:	9b03      	ldr	r3, [sp, #12]
 80012f4:	f000 feb0 	bl	8002058 <HAL_GPIO_WritePin>
 80012f8:	20a0      	movs	r0, #160	@ 0xa0
 80012fa:	a908      	add	r1, sp, #32
 80012fc:	05c0      	lsls	r0, r0, #23
 80012fe:	9408      	str	r4, [sp, #32]
 8001300:	9609      	str	r6, [sp, #36]	@ 0x24
 8001302:	950a      	str	r5, [sp, #40]	@ 0x28
 8001304:	950b      	str	r5, [sp, #44]	@ 0x2c
 8001306:	f000 fd2f 	bl	8001d68 <HAL_GPIO_Init>
 800130a:	20a0      	movs	r0, #160	@ 0xa0
 800130c:	2300      	movs	r3, #0
 800130e:	2230      	movs	r2, #48	@ 0x30
 8001310:	05c0      	lsls	r0, r0, #23
 8001312:	a908      	add	r1, sp, #32
 8001314:	9208      	str	r2, [sp, #32]
 8001316:	9309      	str	r3, [sp, #36]	@ 0x24
 8001318:	950a      	str	r5, [sp, #40]	@ 0x28
 800131a:	f000 fd25 	bl	8001d68 <HAL_GPIO_Init>
 800131e:	4c5f      	ldr	r4, [pc, #380]	@ (800149c <main+0x200>)
 8001320:	4b5f      	ldr	r3, [pc, #380]	@ (80014a0 <main+0x204>)
 8001322:	0020      	movs	r0, r4
 8001324:	6023      	str	r3, [r4, #0]
 8001326:	4b5f      	ldr	r3, [pc, #380]	@ (80014a4 <main+0x208>)
 8001328:	60e6      	str	r6, [r4, #12]
 800132a:	6063      	str	r3, [r4, #4]
 800132c:	2364      	movs	r3, #100	@ 0x64
 800132e:	6125      	str	r5, [r4, #16]
 8001330:	60a3      	str	r3, [r4, #8]
 8001332:	6165      	str	r5, [r4, #20]
 8001334:	61a5      	str	r5, [r4, #24]
 8001336:	61e5      	str	r5, [r4, #28]
 8001338:	6225      	str	r5, [r4, #32]
 800133a:	f000 ffd3 	bl	80022e4 <HAL_I2C_Init>
 800133e:	2800      	cmp	r0, #0
 8001340:	d001      	beq.n	8001346 <main+0xaa>
 8001342:	b672      	cpsid	i
 8001344:	e7fe      	b.n	8001344 <main+0xa8>
 8001346:	2100      	movs	r1, #0
 8001348:	0020      	movs	r0, r4
 800134a:	f001 fcfd 	bl	8002d48 <HAL_I2CEx_ConfigAnalogFilter>
 800134e:	1e01      	subs	r1, r0, #0
 8001350:	d001      	beq.n	8001356 <main+0xba>
 8001352:	b672      	cpsid	i
 8001354:	e7fe      	b.n	8001354 <main+0xb8>
 8001356:	0020      	movs	r0, r4
 8001358:	f001 fd1c 	bl	8002d94 <HAL_I2CEx_ConfigDigitalFilter>
 800135c:	1e06      	subs	r6, r0, #0
 800135e:	d001      	beq.n	8001364 <main+0xc8>
 8001360:	b672      	cpsid	i
 8001362:	e7fe      	b.n	8001362 <main+0xc6>
 8001364:	0002      	movs	r2, r0
 8001366:	2101      	movs	r1, #1
 8001368:	2017      	movs	r0, #23
 800136a:	f000 fc5b 	bl	8001c24 <HAL_NVIC_SetPriority>
 800136e:	2017      	movs	r0, #23
 8001370:	f000 fc82 	bl	8001c78 <HAL_NVIC_EnableIRQ>
 8001374:	2210      	movs	r2, #16
 8001376:	0031      	movs	r1, r6
 8001378:	a808      	add	r0, sp, #32
 800137a:	f002 f9c9 	bl	8003710 <memset>
 800137e:	220c      	movs	r2, #12
 8001380:	0031      	movs	r1, r6
 8001382:	a804      	add	r0, sp, #16
 8001384:	f002 f9c4 	bl	8003710 <memset>
 8001388:	4d47      	ldr	r5, [pc, #284]	@ (80014a8 <main+0x20c>)
 800138a:	4b48      	ldr	r3, [pc, #288]	@ (80014ac <main+0x210>)
 800138c:	4f48      	ldr	r7, [pc, #288]	@ (80014b0 <main+0x214>)
 800138e:	602b      	str	r3, [r5, #0]
 8001390:	2347      	movs	r3, #71	@ 0x47
 8001392:	0028      	movs	r0, r5
 8001394:	606b      	str	r3, [r5, #4]
 8001396:	60ae      	str	r6, [r5, #8]
 8001398:	60ef      	str	r7, [r5, #12]
 800139a:	612e      	str	r6, [r5, #16]
 800139c:	616e      	str	r6, [r5, #20]
 800139e:	61ae      	str	r6, [r5, #24]
 80013a0:	f002 f952 	bl	8003648 <HAL_TIM_Base_Init>
 80013a4:	2800      	cmp	r0, #0
 80013a6:	d001      	beq.n	80013ac <main+0x110>
 80013a8:	b672      	cpsid	i
 80013aa:	e7fe      	b.n	80013aa <main+0x10e>
 80013ac:	2380      	movs	r3, #128	@ 0x80
 80013ae:	0028      	movs	r0, r5
 80013b0:	015b      	lsls	r3, r3, #5
 80013b2:	a908      	add	r1, sp, #32
 80013b4:	4698      	mov	r8, r3
 80013b6:	9308      	str	r3, [sp, #32]
 80013b8:	f002 f838 	bl	800342c <HAL_TIM_ConfigClockSource>
 80013bc:	2800      	cmp	r0, #0
 80013be:	d001      	beq.n	80013c4 <main+0x128>
 80013c0:	b672      	cpsid	i
 80013c2:	e7fe      	b.n	80013c2 <main+0x126>
 80013c4:	2200      	movs	r2, #0
 80013c6:	2300      	movs	r3, #0
 80013c8:	9006      	str	r0, [sp, #24]
 80013ca:	a904      	add	r1, sp, #16
 80013cc:	0028      	movs	r0, r5
 80013ce:	9204      	str	r2, [sp, #16]
 80013d0:	9305      	str	r3, [sp, #20]
 80013d2:	f002 f969 	bl	80036a8 <HAL_TIMEx_MasterConfigSynchronization>
 80013d6:	1e06      	subs	r6, r0, #0
 80013d8:	d001      	beq.n	80013de <main+0x142>
 80013da:	b672      	cpsid	i
 80013dc:	e7fe      	b.n	80013dc <main+0x140>
 80013de:	0001      	movs	r1, r0
 80013e0:	2210      	movs	r2, #16
 80013e2:	a808      	add	r0, sp, #32
 80013e4:	f002 f994 	bl	8003710 <memset>
 80013e8:	220c      	movs	r2, #12
 80013ea:	0031      	movs	r1, r6
 80013ec:	a804      	add	r0, sp, #16
 80013ee:	f002 f98f 	bl	8003710 <memset>
 80013f2:	4d30      	ldr	r5, [pc, #192]	@ (80014b4 <main+0x218>)
 80013f4:	4b30      	ldr	r3, [pc, #192]	@ (80014b8 <main+0x21c>)
 80013f6:	0028      	movs	r0, r5
 80013f8:	602b      	str	r3, [r5, #0]
 80013fa:	230f      	movs	r3, #15
 80013fc:	60ae      	str	r6, [r5, #8]
 80013fe:	606b      	str	r3, [r5, #4]
 8001400:	60ef      	str	r7, [r5, #12]
 8001402:	612e      	str	r6, [r5, #16]
 8001404:	61ae      	str	r6, [r5, #24]
 8001406:	f002 f91f 	bl	8003648 <HAL_TIM_Base_Init>
 800140a:	2800      	cmp	r0, #0
 800140c:	d001      	beq.n	8001412 <main+0x176>
 800140e:	b672      	cpsid	i
 8001410:	e7fe      	b.n	8001410 <main+0x174>
 8001412:	4643      	mov	r3, r8
 8001414:	0028      	movs	r0, r5
 8001416:	a908      	add	r1, sp, #32
 8001418:	9308      	str	r3, [sp, #32]
 800141a:	f002 f807 	bl	800342c <HAL_TIM_ConfigClockSource>
 800141e:	2800      	cmp	r0, #0
 8001420:	d001      	beq.n	8001426 <main+0x18a>
 8001422:	b672      	cpsid	i
 8001424:	e7fe      	b.n	8001424 <main+0x188>
 8001426:	9004      	str	r0, [sp, #16]
 8001428:	9006      	str	r0, [sp, #24]
 800142a:	a904      	add	r1, sp, #16
 800142c:	0028      	movs	r0, r5
 800142e:	f002 f93b 	bl	80036a8 <HAL_TIMEx_MasterConfigSynchronization>
 8001432:	1e06      	subs	r6, r0, #0
 8001434:	d001      	beq.n	800143a <main+0x19e>
 8001436:	b672      	cpsid	i
 8001438:	e7fe      	b.n	8001438 <main+0x19c>
 800143a:	0028      	movs	r0, r5
 800143c:	f001 ffcc 	bl	80033d8 <HAL_TIM_Base_Start>
 8001440:	20a0      	movs	r0, #160	@ 0xa0
 8001442:	2201      	movs	r2, #1
 8001444:	2140      	movs	r1, #64	@ 0x40
 8001446:	05c0      	lsls	r0, r0, #23
 8001448:	f000 fe06 	bl	8002058 <HAL_GPIO_WritePin>
 800144c:	20a0      	movs	r0, #160	@ 0xa0
 800144e:	0032      	movs	r2, r6
 8001450:	2180      	movs	r1, #128	@ 0x80
 8001452:	05c0      	lsls	r0, r0, #23
 8001454:	f000 fe00 	bl	8002058 <HAL_GPIO_WritePin>
 8001458:	4d18      	ldr	r5, [pc, #96]	@ (80014bc <main+0x220>)
 800145a:	0020      	movs	r0, r4
 800145c:	2201      	movs	r2, #1
 800145e:	0029      	movs	r1, r5
 8001460:	f001 f8b4 	bl	80025cc <HAL_I2C_Slave_Receive_IT>
 8001464:	236e      	movs	r3, #110	@ 0x6e
 8001466:	2780      	movs	r7, #128	@ 0x80
 8001468:	26a0      	movs	r6, #160	@ 0xa0
 800146a:	4698      	mov	r8, r3
 800146c:	4c14      	ldr	r4, [pc, #80]	@ (80014c0 <main+0x224>)
 800146e:	007f      	lsls	r7, r7, #1
 8001470:	05f6      	lsls	r6, r6, #23
 8001472:	7823      	ldrb	r3, [r4, #0]
 8001474:	2b79      	cmp	r3, #121	@ 0x79
 8001476:	d105      	bne.n	8001484 <main+0x1e8>
 8001478:	2000      	movs	r0, #0
 800147a:	7829      	ldrb	r1, [r5, #0]
 800147c:	f7ff fe72 	bl	8001164 <do_instruction>
 8001480:	4643      	mov	r3, r8
 8001482:	7023      	strb	r3, [r4, #0]
 8001484:	0030      	movs	r0, r6
 8001486:	0039      	movs	r1, r7
 8001488:	f000 fdec 	bl	8002064 <HAL_GPIO_TogglePin>
 800148c:	2064      	movs	r0, #100	@ 0x64
 800148e:	f000 fb9d 	bl	8001bcc <HAL_Delay>
 8001492:	e7ee      	b.n	8001472 <main+0x1d6>
 8001494:	40021000 	.word	0x40021000
 8001498:	000019cf 	.word	0x000019cf
 800149c:	20000118 	.word	0x20000118
 80014a0:	40005400 	.word	0x40005400
 80014a4:	00402d41 	.word	0x00402d41
 80014a8:	200000cc 	.word	0x200000cc
 80014ac:	40012c00 	.word	0x40012c00
 80014b0:	0000ffff 	.word	0x0000ffff
 80014b4:	20000080 	.word	0x20000080
 80014b8:	40000400 	.word	0x40000400
 80014bc:	2000007c 	.word	0x2000007c
 80014c0:	20000000 	.word	0x20000000

080014c4 <HAL_I2C_SlaveRxCpltCallback>:
 80014c4:	4b07      	ldr	r3, [pc, #28]	@ (80014e4 <HAL_I2C_SlaveRxCpltCallback+0x20>)
 80014c6:	6802      	ldr	r2, [r0, #0]
 80014c8:	b510      	push	{r4, lr}
 80014ca:	429a      	cmp	r2, r3
 80014cc:	d000      	beq.n	80014d0 <HAL_I2C_SlaveRxCpltCallback+0xc>
 80014ce:	bd10      	pop	{r4, pc}
 80014d0:	2279      	movs	r2, #121	@ 0x79
 80014d2:	4b05      	ldr	r3, [pc, #20]	@ (80014e8 <HAL_I2C_SlaveRxCpltCallback+0x24>)
 80014d4:	4905      	ldr	r1, [pc, #20]	@ (80014ec <HAL_I2C_SlaveRxCpltCallback+0x28>)
 80014d6:	701a      	strb	r2, [r3, #0]
 80014d8:	4805      	ldr	r0, [pc, #20]	@ (80014f0 <HAL_I2C_SlaveRxCpltCallback+0x2c>)
 80014da:	3a78      	subs	r2, #120	@ 0x78
 80014dc:	f001 f876 	bl	80025cc <HAL_I2C_Slave_Receive_IT>
 80014e0:	e7f5      	b.n	80014ce <HAL_I2C_SlaveRxCpltCallback+0xa>
 80014e2:	46c0      	nop			@ (mov r8, r8)
 80014e4:	40005400 	.word	0x40005400
 80014e8:	20000000 	.word	0x20000000
 80014ec:	2000007c 	.word	0x2000007c
 80014f0:	20000118 	.word	0x20000118

080014f4 <HAL_I2C_ErrorCallback>:
 80014f4:	4b0b      	ldr	r3, [pc, #44]	@ (8001524 <HAL_I2C_ErrorCallback+0x30>)
 80014f6:	6802      	ldr	r2, [r0, #0]
 80014f8:	b510      	push	{r4, lr}
 80014fa:	0004      	movs	r4, r0
 80014fc:	429a      	cmp	r2, r3
 80014fe:	d000      	beq.n	8001502 <HAL_I2C_ErrorCallback+0xe>
 8001500:	bd10      	pop	{r4, pc}
 8001502:	f001 fc1f 	bl	8002d44 <HAL_I2C_GetError>
 8001506:	2801      	cmp	r0, #1
 8001508:	d1fa      	bne.n	8001500 <HAL_I2C_ErrorCallback+0xc>
 800150a:	0020      	movs	r0, r4
 800150c:	f000 ff4a 	bl	80023a4 <HAL_I2C_DeInit>
 8001510:	0020      	movs	r0, r4
 8001512:	f000 fee7 	bl	80022e4 <HAL_I2C_Init>
 8001516:	2201      	movs	r2, #1
 8001518:	4903      	ldr	r1, [pc, #12]	@ (8001528 <HAL_I2C_ErrorCallback+0x34>)
 800151a:	4804      	ldr	r0, [pc, #16]	@ (800152c <HAL_I2C_ErrorCallback+0x38>)
 800151c:	f001 f856 	bl	80025cc <HAL_I2C_Slave_Receive_IT>
 8001520:	e7ee      	b.n	8001500 <HAL_I2C_ErrorCallback+0xc>
 8001522:	46c0      	nop			@ (mov r8, r8)
 8001524:	40005400 	.word	0x40005400
 8001528:	2000007c 	.word	0x2000007c
 800152c:	20000118 	.word	0x20000118

08001530 <Error_Handler>:
 8001530:	b672      	cpsid	i
 8001532:	e7fe      	b.n	8001532 <Error_Handler+0x2>

08001534 <move_anticlockwise>:
 8001534:	b5f8      	push	{r3, r4, r5, r6, r7, lr}
 8001536:	0007      	movs	r7, r0
 8001538:	000c      	movs	r4, r1
 800153a:	2800      	cmp	r0, #0
 800153c:	dc00      	bgt.n	8001540 <move_anticlockwise+0xc>
 800153e:	e0f5      	b.n	800172c <move_anticlockwise+0x1f8>
 8001540:	2600      	movs	r6, #0
 8001542:	4d7b      	ldr	r5, [pc, #492]	@ (8001730 <move_anticlockwise+0x1fc>)
 8001544:	20a0      	movs	r0, #160	@ 0xa0
 8001546:	2201      	movs	r2, #1
 8001548:	2101      	movs	r1, #1
 800154a:	05c0      	lsls	r0, r0, #23
 800154c:	f000 fd84 	bl	8002058 <HAL_GPIO_WritePin>
 8001550:	20a0      	movs	r0, #160	@ 0xa0
 8001552:	2200      	movs	r2, #0
 8001554:	2102      	movs	r1, #2
 8001556:	05c0      	lsls	r0, r0, #23
 8001558:	f000 fd7e 	bl	8002058 <HAL_GPIO_WritePin>
 800155c:	20a0      	movs	r0, #160	@ 0xa0
 800155e:	2200      	movs	r2, #0
 8001560:	2104      	movs	r1, #4
 8001562:	05c0      	lsls	r0, r0, #23
 8001564:	f000 fd78 	bl	8002058 <HAL_GPIO_WritePin>
 8001568:	20a0      	movs	r0, #160	@ 0xa0
 800156a:	2200      	movs	r2, #0
 800156c:	2108      	movs	r1, #8
 800156e:	05c0      	lsls	r0, r0, #23
 8001570:	f000 fd72 	bl	8002058 <HAL_GPIO_WritePin>
 8001574:	2300      	movs	r3, #0
 8001576:	682a      	ldr	r2, [r5, #0]
 8001578:	6253      	str	r3, [r2, #36]	@ 0x24
 800157a:	6a53      	ldr	r3, [r2, #36]	@ 0x24
 800157c:	429c      	cmp	r4, r3
 800157e:	d8fc      	bhi.n	800157a <move_anticlockwise+0x46>
 8001580:	20a0      	movs	r0, #160	@ 0xa0
 8001582:	2201      	movs	r2, #1
 8001584:	2101      	movs	r1, #1
 8001586:	05c0      	lsls	r0, r0, #23
 8001588:	f000 fd66 	bl	8002058 <HAL_GPIO_WritePin>
 800158c:	20a0      	movs	r0, #160	@ 0xa0
 800158e:	2201      	movs	r2, #1
 8001590:	2102      	movs	r1, #2
 8001592:	05c0      	lsls	r0, r0, #23
 8001594:	f000 fd60 	bl	8002058 <HAL_GPIO_WritePin>
 8001598:	20a0      	movs	r0, #160	@ 0xa0
 800159a:	2200      	movs	r2, #0
 800159c:	2104      	movs	r1, #4
 800159e:	05c0      	lsls	r0, r0, #23
 80015a0:	f000 fd5a 	bl	8002058 <HAL_GPIO_WritePin>
 80015a4:	20a0      	movs	r0, #160	@ 0xa0
 80015a6:	2200      	movs	r2, #0
 80015a8:	2108      	movs	r1, #8
 80015aa:	05c0      	lsls	r0, r0, #23
 80015ac:	f000 fd54 	bl	8002058 <HAL_GPIO_WritePin>
 80015b0:	2300      	movs	r3, #0
 80015b2:	682a      	ldr	r2, [r5, #0]
 80015b4:	6253      	str	r3, [r2, #36]	@ 0x24
 80015b6:	6a53      	ldr	r3, [r2, #36]	@ 0x24
 80015b8:	429c      	cmp	r4, r3
 80015ba:	d8fc      	bhi.n	80015b6 <move_anticlockwise+0x82>
 80015bc:	20a0      	movs	r0, #160	@ 0xa0
 80015be:	2200      	movs	r2, #0
 80015c0:	2101      	movs	r1, #1
 80015c2:	05c0      	lsls	r0, r0, #23
 80015c4:	f000 fd48 	bl	8002058 <HAL_GPIO_WritePin>
 80015c8:	20a0      	movs	r0, #160	@ 0xa0
 80015ca:	2201      	movs	r2, #1
 80015cc:	2102      	movs	r1, #2
 80015ce:	05c0      	lsls	r0, r0, #23
 80015d0:	f000 fd42 	bl	8002058 <HAL_GPIO_WritePin>
 80015d4:	20a0      	movs	r0, #160	@ 0xa0
 80015d6:	2200      	movs	r2, #0
 80015d8:	2104      	movs	r1, #4
 80015da:	05c0      	lsls	r0, r0, #23
 80015dc:	f000 fd3c 	bl	8002058 <HAL_GPIO_WritePin>
 80015e0:	20a0      	movs	r0, #160	@ 0xa0
 80015e2:	2200      	movs	r2, #0
 80015e4:	2108      	movs	r1, #8
 80015e6:	05c0      	lsls	r0, r0, #23
 80015e8:	f000 fd36 	bl	8002058 <HAL_GPIO_WritePin>
 80015ec:	2300      	movs	r3, #0
 80015ee:	682a      	ldr	r2, [r5, #0]
 80015f0:	6253      	str	r3, [r2, #36]	@ 0x24
 80015f2:	6a53      	ldr	r3, [r2, #36]	@ 0x24
 80015f4:	429c      	cmp	r4, r3
 80015f6:	d8fc      	bhi.n	80015f2 <move_anticlockwise+0xbe>
 80015f8:	20a0      	movs	r0, #160	@ 0xa0
 80015fa:	2200      	movs	r2, #0
 80015fc:	2101      	movs	r1, #1
 80015fe:	05c0      	lsls	r0, r0, #23
 8001600:	f000 fd2a 	bl	8002058 <HAL_GPIO_WritePin>
 8001604:	20a0      	movs	r0, #160	@ 0xa0
 8001606:	2201      	movs	r2, #1
 8001608:	2102      	movs	r1, #2
 800160a:	05c0      	lsls	r0, r0, #23
 800160c:	f000 fd24 	bl	8002058 <HAL_GPIO_WritePin>
 8001610:	20a0      	movs	r0, #160	@ 0xa0
 8001612:	2201      	movs	r2, #1
 8001614:	2104      	movs	r1, #4
 8001616:	05c0      	lsls	r0, r0, #23
 8001618:	f000 fd1e 	bl	8002058 <HAL_GPIO_WritePin>
 800161c:	20a0      	movs	r0, #160	@ 0xa0
 800161e:	2200      	movs	r2, #0
 8001620:	2108      	movs	r1, #8
 8001622:	05c0      	lsls	r0, r0, #23
 8001624:	f000 fd18 	bl	8002058 <HAL_GPIO_WritePin>
 8001628:	2300      	movs	r3, #0
 800162a:	682a      	ldr	r2, [r5, #0]
 800162c:	6253      	str	r3, [r2, #36]	@ 0x24
 800162e:	6a53      	ldr	r3, [r2, #36]	@ 0x24
 8001630:	429c      	cmp	r4, r3
 8001632:	d8fc      	bhi.n	800162e <move_anticlockwise+0xfa>
 8001634:	20a0      	movs	r0, #160	@ 0xa0
 8001636:	2200      	movs	r2, #0
 8001638:	2101      	movs	r1, #1
 800163a:	05c0      	lsls	r0, r0, #23
 800163c:	f000 fd0c 	bl	8002058 <HAL_GPIO_WritePin>
 8001640:	20a0      	movs	r0, #160	@ 0xa0
 8001642:	2200      	movs	r2, #0
 8001644:	2102      	movs	r1, #2
 8001646:	05c0      	lsls	r0, r0, #23
 8001648:	f000 fd06 	bl	8002058 <HAL_GPIO_WritePin>
 800164c:	20a0      	movs	r0, #160	@ 0xa0
 800164e:	2201      	movs	r2, #1
 8001650:	2104      	movs	r1, #4
 8001652:	05c0      	lsls	r0, r0, #23
 8001654:	f000 fd00 	bl	8002058 <HAL_GPIO_WritePin>
 8001658:	20a0      	movs	r0, #160	@ 0xa0
 800165a:	2200      	movs	r2, #0
 800165c:	2108      	movs	r1, #8
 800165e:	05c0      	lsls	r0, r0, #23
 8001660:	f000 fcfa 	bl	8002058 <HAL_GPIO_WritePin>
 8001664:	2300      	movs	r3, #0
 8001666:	682a      	ldr	r2, [r5, #0]
 8001668:	6253      	str	r3, [r2, #36]	@ 0x24
 800166a:	6a53      	ldr	r3, [r2, #36]	@ 0x24
 800166c:	429c      	cmp	r4, r3
 800166e:	d8fc      	bhi.n	800166a <move_anticlockwise+0x136>
 8001670:	20a0      	movs	r0, #160	@ 0xa0
 8001672:	2200      	movs	r2, #0
 8001674:	2101      	movs	r1, #1
 8001676:	05c0      	lsls	r0, r0, #23
 8001678:	f000 fcee 	bl	8002058 <HAL_GPIO_WritePin>
 800167c:	20a0      	movs	r0, #160	@ 0xa0
 800167e:	2200      	movs	r2, #0
 8001680:	2102      	movs	r1, #2
 8001682:	05c0      	lsls	r0, r0, #23
 8001684:	f000 fce8 	bl	8002058 <HAL_GPIO_WritePin>
 8001688:	20a0      	movs	r0, #160	@ 0xa0
 800168a:	2201      	movs	r2, #1
 800168c:	2104      	movs	r1, #4
 800168e:	05c0      	lsls	r0, r0, #23
 8001690:	f000 fce2 	bl	8002058 <HAL_GPIO_WritePin>
 8001694:	20a0      	movs	r0, #160	@ 0xa0
 8001696:	2201      	movs	r2, #1
 8001698:	2108      	movs	r1, #8
 800169a:	05c0      	lsls	r0, r0, #23
 800169c:	f000 fcdc 	bl	8002058 <HAL_GPIO_WritePin>
 80016a0:	2300      	movs	r3, #0
 80016a2:	682a      	ldr	r2, [r5, #0]
 80016a4:	6253      	str	r3, [r2, #36]	@ 0x24
 80016a6:	6a53      	ldr	r3, [r2, #36]	@ 0x24
 80016a8:	429c      	cmp	r4, r3
 80016aa:	d8fc      	bhi.n	80016a6 <move_anticlockwise+0x172>
 80016ac:	20a0      	movs	r0, #160	@ 0xa0
 80016ae:	2200      	movs	r2, #0
 80016b0:	2101      	movs	r1, #1
 80016b2:	05c0      	lsls	r0, r0, #23
 80016b4:	f000 fcd0 	bl	8002058 <HAL_GPIO_WritePin>
 80016b8:	20a0      	movs	r0, #160	@ 0xa0
 80016ba:	2200      	movs	r2, #0
 80016bc:	2102      	movs	r1, #2
 80016be:	05c0      	lsls	r0, r0, #23
 80016c0:	f000 fcca 	bl	8002058 <HAL_GPIO_WritePin>
 80016c4:	20a0      	movs	r0, #160	@ 0xa0
 80016c6:	2200      	movs	r2, #0
 80016c8:	2104      	movs	r1, #4
 80016ca:	05c0      	lsls	r0, r0, #23
 80016cc:	f000 fcc4 	bl	8002058 <HAL_GPIO_WritePin>
 80016d0:	20a0      	movs	r0, #160	@ 0xa0
 80016d2:	2201      	movs	r2, #1
 80016d4:	2108      	movs	r1, #8
 80016d6:	05c0      	lsls	r0, r0, #23
 80016d8:	f000 fcbe 	bl	8002058 <HAL_GPIO_WritePin>
 80016dc:	2300      	movs	r3, #0
 80016de:	682a      	ldr	r2, [r5, #0]
 80016e0:	6253      	str	r3, [r2, #36]	@ 0x24
 80016e2:	6a53      	ldr	r3, [r2, #36]	@ 0x24
 80016e4:	429c      	cmp	r4, r3
 80016e6:	d8fc      	bhi.n	80016e2 <move_anticlockwise+0x1ae>
 80016e8:	20a0      	movs	r0, #160	@ 0xa0
 80016ea:	2201      	movs	r2, #1
 80016ec:	2101      	movs	r1, #1
 80016ee:	05c0      	lsls	r0, r0, #23
 80016f0:	f000 fcb2 	bl	8002058 <HAL_GPIO_WritePin>
 80016f4:	20a0      	movs	r0, #160	@ 0xa0
 80016f6:	2200      	movs	r2, #0
 80016f8:	2102      	movs	r1, #2
 80016fa:	05c0      	lsls	r0, r0, #23
 80016fc:	f000 fcac 	bl	8002058 <HAL_GPIO_WritePin>
 8001700:	20a0      	movs	r0, #160	@ 0xa0
 8001702:	2200      	movs	r2, #0
 8001704:	2104      	movs	r1, #4
 8001706:	05c0      	lsls	r0, r0, #23
 8001708:	f000 fca6 	bl	8002058 <HAL_GPIO_WritePin>
 800170c:	20a0      	movs	r0, #160	@ 0xa0
 800170e:	2201      	movs	r2, #1
 8001710:	2108      	movs	r1, #8
 8001712:	05c0      	lsls	r0, r0, #23
 8001714:	f000 fca0 	bl	8002058 <HAL_GPIO_WritePin>
 8001718:	2300      	movs	r3, #0
 800171a:	682a      	ldr	r2, [r5, #0]
 800171c:	6253      	str	r3, [r2, #36]	@ 0x24
 800171e:	6a53      	ldr	r3, [r2, #36]	@ 0x24
 8001720:	429c      	cmp	r4, r3
 8001722:	d8fc      	bhi.n	800171e <move_anticlockwise+0x1ea>
 8001724:	3601      	adds	r6, #1
 8001726:	42b7      	cmp	r7, r6
 8001728:	d000      	beq.n	800172c <move_anticlockwise+0x1f8>
 800172a:	e70b      	b.n	8001544 <move_anticlockwise+0x10>
 800172c:	bdf8      	pop	{r3, r4, r5, r6, r7, pc}
 800172e:	46c0      	nop			@ (mov r8, r8)
 8001730:	20000080 	.word	0x20000080

08001734 <move_clockwise>:
 8001734:	b5f8      	push	{r3, r4, r5, r6, r7, lr}
 8001736:	0007      	movs	r7, r0
 8001738:	000c      	movs	r4, r1
 800173a:	2800      	cmp	r0, #0
 800173c:	dc00      	bgt.n	8001740 <move_clockwise+0xc>
 800173e:	e0f5      	b.n	800192c <move_clockwise+0x1f8>
 8001740:	2600      	movs	r6, #0
 8001742:	4d7b      	ldr	r5, [pc, #492]	@ (8001930 <move_clockwise+0x1fc>)
 8001744:	20a0      	movs	r0, #160	@ 0xa0
 8001746:	2201      	movs	r2, #1
 8001748:	2101      	movs	r1, #1
 800174a:	05c0      	lsls	r0, r0, #23
 800174c:	f000 fc84 	bl	8002058 <HAL_GPIO_WritePin>
 8001750:	20a0      	movs	r0, #160	@ 0xa0
 8001752:	2200      	movs	r2, #0
 8001754:	2102      	movs	r1, #2
 8001756:	05c0      	lsls	r0, r0, #23
 8001758:	f000 fc7e 	bl	8002058 <HAL_GPIO_WritePin>
 800175c:	20a0      	movs	r0, #160	@ 0xa0
 800175e:	2200      	movs	r2, #0
 8001760:	2104      	movs	r1, #4
 8001762:	05c0      	lsls	r0, r0, #23
 8001764:	f000 fc78 	bl	8002058 <HAL_GPIO_WritePin>
 8001768:	20a0      	movs	r0, #160	@ 0xa0
 800176a:	2201      	movs	r2, #1
 800176c:	2108      	movs	r1, #8
 800176e:	05c0      	lsls	r0, r0, #23
 8001770:	f000 fc72 	bl	8002058 <HAL_GPIO_WritePin>
 8001774:	2300      	movs	r3, #0
 8001776:	682a      	ldr	r2, [r5, #0]
 8001778:	6253      	str	r3, [r2, #36]	@ 0x24
 800177a:	6a53      	ldr	r3, [r2, #36]	@ 0x24
 800177c:	429c      	cmp	r4, r3
 800177e:	d8fc      	bhi.n	800177a <move_clockwise+0x46>
 8001780:	20a0      	movs	r0, #160	@ 0xa0
 8001782:	2200      	movs	r2, #0
 8001784:	2101      	movs	r1, #1
 8001786:	05c0      	lsls	r0, r0, #23
 8001788:	f000 fc66 	bl	8002058 <HAL_GPIO_WritePin>
 800178c:	20a0      	movs	r0, #160	@ 0xa0
 800178e:	2200      	movs	r2, #0
 8001790:	2102      	movs	r1, #2
 8001792:	05c0      	lsls	r0, r0, #23
 8001794:	f000 fc60 	bl	8002058 <HAL_GPIO_WritePin>
 8001798:	20a0      	movs	r0, #160	@ 0xa0
 800179a:	2200      	movs	r2, #0
 800179c:	2104      	movs	r1, #4
 800179e:	05c0      	lsls	r0, r0, #23
 80017a0:	f000 fc5a 	bl	8002058 <HAL_GPIO_WritePin>
 80017a4:	20a0      	movs	r0, #160	@ 0xa0
 80017a6:	2201      	movs	r2, #1
 80017a8:	2108      	movs	r1, #8
 80017aa:	05c0      	lsls	r0, r0, #23
 80017ac:	f000 fc54 	bl	8002058 <HAL_GPIO_WritePin>
 80017b0:	2300      	movs	r3, #0
 80017b2:	682a      	ldr	r2, [r5, #0]
 80017b4:	6253      	str	r3, [r2, #36]	@ 0x24
 80017b6:	6a53      	ldr	r3, [r2, #36]	@ 0x24
 80017b8:	429c      	cmp	r4, r3
 80017ba:	d8fc      	bhi.n	80017b6 <move_clockwise+0x82>
 80017bc:	20a0      	movs	r0, #160	@ 0xa0
 80017be:	2200      	movs	r2, #0
 80017c0:	2101      	movs	r1, #1
 80017c2:	05c0      	lsls	r0, r0, #23
 80017c4:	f000 fc48 	bl	8002058 <HAL_GPIO_WritePin>
 80017c8:	20a0      	movs	r0, #160	@ 0xa0
 80017ca:	2200      	movs	r2, #0
 80017cc:	2102      	movs	r1, #2
 80017ce:	05c0      	lsls	r0, r0, #23
 80017d0:	f000 fc42 	bl	8002058 <HAL_GPIO_WritePin>
 80017d4:	20a0      	movs	r0, #160	@ 0xa0
 80017d6:	2201      	movs	r2, #1
 80017d8:	2104      	movs	r1, #4
 80017da:	05c0      	lsls	r0, r0, #23
 80017dc:	f000 fc3c 	bl	8002058 <HAL_GPIO_WritePin>
 80017e0:	20a0      	movs	r0, #160	@ 0xa0
 80017e2:	2201      	movs	r2, #1
 80017e4:	2108      	movs	r1, #8
 80017e6:	05c0      	lsls	r0, r0, #23
 80017e8:	f000 fc36 	bl	8002058 <HAL_GPIO_WritePin>
 80017ec:	2300      	movs	r3, #0
 80017ee:	682a      	ldr	r2, [r5, #0]
 80017f0:	6253      	str	r3, [r2, #36]	@ 0x24
 80017f2:	6a53      	ldr	r3, [r2, #36]	@ 0x24
 80017f4:	429c      	cmp	r4, r3
 80017f6:	d8fc      	bhi.n	80017f2 <move_clockwise+0xbe>
 80017f8:	20a0      	movs	r0, #160	@ 0xa0
 80017fa:	2200      	movs	r2, #0
 80017fc:	2101      	movs	r1, #1
 80017fe:	05c0      	lsls	r0, r0, #23
 8001800:	f000 fc2a 	bl	8002058 <HAL_GPIO_WritePin>
 8001804:	20a0      	movs	r0, #160	@ 0xa0
 8001806:	2200      	movs	r2, #0
 8001808:	2102      	movs	r1, #2
 800180a:	05c0      	lsls	r0, r0, #23
 800180c:	f000 fc24 	bl	8002058 <HAL_GPIO_WritePin>
 8001810:	20a0      	movs	r0, #160	@ 0xa0
 8001812:	2201      	movs	r2, #1
 8001814:	2104      	movs	r1, #4
 8001816:	05c0      	lsls	r0, r0, #23
 8001818:	f000 fc1e 	bl	8002058 <HAL_GPIO_WritePin>
 800181c:	20a0      	movs	r0, #160	@ 0xa0
 800181e:	2200      	movs	r2, #0
 8001820:	2108      	movs	r1, #8
 8001822:	05c0      	lsls	r0, r0, #23
 8001824:	f000 fc18 	bl	8002058 <HAL_GPIO_WritePin>
 8001828:	2300      	movs	r3, #0
 800182a:	682a      	ldr	r2, [r5, #0]
 800182c:	6253      	str	r3, [r2, #36]	@ 0x24
 800182e:	6a53      	ldr	r3, [r2, #36]	@ 0x24
 8001830:	429c      	cmp	r4, r3
 8001832:	d8fc      	bhi.n	800182e <move_clockwise+0xfa>
 8001834:	20a0      	movs	r0, #160	@ 0xa0
 8001836:	2200      	movs	r2, #0
 8001838:	2101      	movs	r1, #1
 800183a:	05c0      	lsls	r0, r0, #23
 800183c:	f000 fc0c 	bl	8002058 <HAL_GPIO_WritePin>
 8001840:	20a0      	movs	r0, #160	@ 0xa0
 8001842:	2201      	movs	r2, #1
 8001844:	2102      	movs	r1, #2
 8001846:	05c0      	lsls	r0, r0, #23
 8001848:	f000 fc06 	bl	8002058 <HAL_GPIO_WritePin>
 800184c:	20a0      	movs	r0, #160	@ 0xa0
 800184e:	2201      	movs	r2, #1
 8001850:	2104      	movs	r1, #4
 8001852:	05c0      	lsls	r0, r0, #23
 8001854:	f000 fc00 	bl	8002058 <HAL_GPIO_WritePin>
 8001858:	20a0      	movs	r0, #160	@ 0xa0
 800185a:	2200      	movs	r2, #0
 800185c:	2108      	movs	r1, #8
 800185e:	05c0      	lsls	r0, r0, #23
 8001860:	f000 fbfa 	bl	8002058 <HAL_GPIO_WritePin>
 8001864:	2300      	movs	r3, #0
 8001866:	682a      	ldr	r2, [r5, #0]
 8001868:	6253      	str	r3, [r2, #36]	@ 0x24
 800186a:	6a53      	ldr	r3, [r2, #36]	@ 0x24
 800186c:	429c      	cmp	r4, r3
 800186e:	d8fc      	bhi.n	800186a <move_clockwise+0x136>
 8001870:	20a0      	movs	r0, #160	@ 0xa0
 8001872:	2200      	movs	r2, #0
 8001874:	2101      	movs	r1, #1
 8001876:	05c0      	lsls	r0, r0, #23
 8001878:	f000 fbee 	bl	8002058 <HAL_GPIO_WritePin>
 800187c:	20a0      	movs	r0, #160	@ 0xa0
 800187e:	2201      	movs	r2, #1
 8001880:	2102      	movs	r1, #2
 8001882:	05c0      	lsls	r0, r0, #23
 8001884:	f000 fbe8 	bl	8002058 <HAL_GPIO_WritePin>
 8001888:	20a0      	movs	r0, #160	@ 0xa0
 800188a:	2200      	movs	r2, #0
 800188c:	2104      	movs	r1, #4
 800188e:	05c0      	lsls	r0, r0, #23
 8001890:	f000 fbe2 	bl	8002058 <HAL_GPIO_WritePin>
 8001894:	20a0      	movs	r0, #160	@ 0xa0
 8001896:	2200      	movs	r2, #0
 8001898:	2108      	movs	r1, #8
 800189a:	05c0      	lsls	r0, r0, #23
 800189c:	f000 fbdc 	bl	8002058 <HAL_GPIO_WritePin>
 80018a0:	2300      	movs	r3, #0
 80018a2:	682a      	ldr	r2, [r5, #0]
 80018a4:	6253      	str	r3, [r2, #36]	@ 0x24
 80018a6:	6a53      	ldr	r3, [r2, #36]	@ 0x24
 80018a8:	429c      	cmp	r4, r3
 80018aa:	d8fc      	bhi.n	80018a6 <move_clockwise+0x172>
 80018ac:	20a0      	movs	r0, #160	@ 0xa0
 80018ae:	2201      	movs	r2, #1
 80018b0:	2101      	movs	r1, #1
 80018b2:	05c0      	lsls	r0, r0, #23
 80018b4:	f000 fbd0 	bl	8002058 <HAL_GPIO_WritePin>
 80018b8:	20a0      	movs	r0, #160	@ 0xa0
 80018ba:	2201      	movs	r2, #1
 80018bc:	2102      	movs	r1, #2
 80018be:	05c0      	lsls	r0, r0, #23
 80018c0:	f000 fbca 	bl	8002058 <HAL_GPIO_WritePin>
 80018c4:	20a0      	movs	r0, #160	@ 0xa0
 80018c6:	2200      	movs	r2, #0
 80018c8:	2104      	movs	r1, #4
 80018ca:	05c0      	lsls	r0, r0, #23
 80018cc:	f000 fbc4 	bl	8002058 <HAL_GPIO_WritePin>
 80018d0:	20a0      	movs	r0, #160	@ 0xa0
 80018d2:	2200      	movs	r2, #0
 80018d4:	2108      	movs	r1, #8
 80018d6:	05c0      	lsls	r0, r0, #23
 80018d8:	f000 fbbe 	bl	8002058 <HAL_GPIO_WritePin>
 80018dc:	2300      	movs	r3, #0
 80018de:	682a      	ldr	r2, [r5, #0]
 80018e0:	6253      	str	r3, [r2, #36]	@ 0x24
 80018e2:	6a53      	ldr	r3, [r2, #36]	@ 0x24
 80018e4:	429c      	cmp	r4, r3
 80018e6:	d8fc      	bhi.n	80018e2 <move_clockwise+0x1ae>
 80018e8:	20a0      	movs	r0, #160	@ 0xa0
 80018ea:	2201      	movs	r2, #1
 80018ec:	2101      	movs	r1, #1
 80018ee:	05c0      	lsls	r0, r0, #23
 80018f0:	f000 fbb2 	bl	8002058 <HAL_GPIO_WritePin>
 80018f4:	20a0      	movs	r0, #160	@ 0xa0
 80018f6:	2200      	movs	r2, #0
 80018f8:	2102      	movs	r1, #2
 80018fa:	05c0      	lsls	r0, r0, #23
 80018fc:	f000 fbac 	bl	8002058 <HAL_GPIO_WritePin>
 8001900:	20a0      	movs	r0, #160	@ 0xa0
 8001902:	2200      	movs	r2, #0
 8001904:	2104      	movs	r1, #4
 8001906:	05c0      	lsls	r0, r0, #23
 8001908:	f000 fba6 	bl	8002058 <HAL_GPIO_WritePin>
 800190c:	20a0      	movs	r0, #160	@ 0xa0
 800190e:	2200      	movs	r2, #0
 8001910:	2108      	movs	r1, #8
 8001912:	05c0      	lsls	r0, r0, #23
 8001914:	f000 fba0 	bl	8002058 <HAL_GPIO_WritePin>
 8001918:	2300      	movs	r3, #0
 800191a:	682a      	ldr	r2, [r5, #0]
 800191c:	6253      	str	r3, [r2, #36]	@ 0x24
 800191e:	6a53      	ldr	r3, [r2, #36]	@ 0x24
 8001920:	429c      	cmp	r4, r3
 8001922:	d8fc      	bhi.n	800191e <move_clockwise+0x1ea>
 8001924:	3601      	adds	r6, #1
 8001926:	42b7      	cmp	r7, r6
 8001928:	d000      	beq.n	800192c <move_clockwise+0x1f8>
 800192a:	e70b      	b.n	8001744 <move_clockwise+0x10>
 800192c:	bdf8      	pop	{r3, r4, r5, r6, r7, pc}
 800192e:	46c0      	nop			@ (mov r8, r8)
 8001930:	20000080 	.word	0x20000080

08001934 <HAL_MspInit>:
 8001934:	2201      	movs	r2, #1
 8001936:	4b0a      	ldr	r3, [pc, #40]	@ (8001960 <HAL_MspInit+0x2c>)
 8001938:	b082      	sub	sp, #8
 800193a:	6c19      	ldr	r1, [r3, #64]	@ 0x40
 800193c:	4311      	orrs	r1, r2
 800193e:	6419      	str	r1, [r3, #64]	@ 0x40
 8001940:	6c19      	ldr	r1, [r3, #64]	@ 0x40
 8001942:	400a      	ands	r2, r1
 8001944:	2180      	movs	r1, #128	@ 0x80
 8001946:	9200      	str	r2, [sp, #0]
 8001948:	9a00      	ldr	r2, [sp, #0]
 800194a:	6bda      	ldr	r2, [r3, #60]	@ 0x3c
 800194c:	0549      	lsls	r1, r1, #21
 800194e:	430a      	orrs	r2, r1
 8001950:	63da      	str	r2, [r3, #60]	@ 0x3c
 8001952:	6bdb      	ldr	r3, [r3, #60]	@ 0x3c
 8001954:	400b      	ands	r3, r1
 8001956:	9301      	str	r3, [sp, #4]
 8001958:	9b01      	ldr	r3, [sp, #4]
 800195a:	b002      	add	sp, #8
 800195c:	4770      	bx	lr
 800195e:	46c0      	nop			@ (mov r8, r8)
 8001960:	40021000 	.word	0x40021000

08001964 <HAL_I2C_MspInit>:
 8001964:	b510      	push	{r4, lr}
 8001966:	0004      	movs	r4, r0
 8001968:	b08e      	sub	sp, #56	@ 0x38
 800196a:	2214      	movs	r2, #20
 800196c:	2100      	movs	r1, #0
 800196e:	a802      	add	r0, sp, #8
 8001970:	f001 fece 	bl	8003710 <memset>
 8001974:	221c      	movs	r2, #28
 8001976:	2100      	movs	r1, #0
 8001978:	a807      	add	r0, sp, #28
 800197a:	f001 fec9 	bl	8003710 <memset>
 800197e:	4b1c      	ldr	r3, [pc, #112]	@ (80019f0 <HAL_I2C_MspInit+0x8c>)
 8001980:	6822      	ldr	r2, [r4, #0]
 8001982:	429a      	cmp	r2, r3
 8001984:	d001      	beq.n	800198a <HAL_I2C_MspInit+0x26>
 8001986:	b00e      	add	sp, #56	@ 0x38
 8001988:	bd10      	pop	{r4, pc}
 800198a:	2302      	movs	r3, #2
 800198c:	a807      	add	r0, sp, #28
 800198e:	9307      	str	r3, [sp, #28]
 8001990:	f001 fc64 	bl	800325c <HAL_RCCEx_PeriphCLKConfig>
 8001994:	2800      	cmp	r0, #0
 8001996:	d128      	bne.n	80019ea <HAL_I2C_MspInit+0x86>
 8001998:	2302      	movs	r3, #2
 800199a:	4c16      	ldr	r4, [pc, #88]	@ (80019f4 <HAL_I2C_MspInit+0x90>)
 800199c:	a902      	add	r1, sp, #8
 800199e:	6b62      	ldr	r2, [r4, #52]	@ 0x34
 80019a0:	4815      	ldr	r0, [pc, #84]	@ (80019f8 <HAL_I2C_MspInit+0x94>)
 80019a2:	431a      	orrs	r2, r3
 80019a4:	6362      	str	r2, [r4, #52]	@ 0x34
 80019a6:	6b62      	ldr	r2, [r4, #52]	@ 0x34
 80019a8:	4013      	ands	r3, r2
 80019aa:	9300      	str	r3, [sp, #0]
 80019ac:	9b00      	ldr	r3, [sp, #0]
 80019ae:	22c0      	movs	r2, #192	@ 0xc0
 80019b0:	2312      	movs	r3, #18
 80019b2:	9202      	str	r2, [sp, #8]
 80019b4:	9303      	str	r3, [sp, #12]
 80019b6:	2200      	movs	r2, #0
 80019b8:	2300      	movs	r3, #0
 80019ba:	9204      	str	r2, [sp, #16]
 80019bc:	9305      	str	r3, [sp, #20]
 80019be:	2306      	movs	r3, #6
 80019c0:	9306      	str	r3, [sp, #24]
 80019c2:	f000 f9d1 	bl	8001d68 <HAL_GPIO_Init>
 80019c6:	2280      	movs	r2, #128	@ 0x80
 80019c8:	6be3      	ldr	r3, [r4, #60]	@ 0x3c
 80019ca:	0392      	lsls	r2, r2, #14
 80019cc:	4313      	orrs	r3, r2
 80019ce:	63e3      	str	r3, [r4, #60]	@ 0x3c
 80019d0:	6be3      	ldr	r3, [r4, #60]	@ 0x3c
 80019d2:	2100      	movs	r1, #0
 80019d4:	4013      	ands	r3, r2
 80019d6:	9301      	str	r3, [sp, #4]
 80019d8:	2200      	movs	r2, #0
 80019da:	2017      	movs	r0, #23
 80019dc:	9b01      	ldr	r3, [sp, #4]
 80019de:	f000 f921 	bl	8001c24 <HAL_NVIC_SetPriority>
 80019e2:	2017      	movs	r0, #23
 80019e4:	f000 f948 	bl	8001c78 <HAL_NVIC_EnableIRQ>
 80019e8:	e7cd      	b.n	8001986 <HAL_I2C_MspInit+0x22>
 80019ea:	f7ff fda1 	bl	8001530 <Error_Handler>
 80019ee:	e7d3      	b.n	8001998 <HAL_I2C_MspInit+0x34>
 80019f0:	40005400 	.word	0x40005400
 80019f4:	40021000 	.word	0x40021000
 80019f8:	50000400 	.word	0x50000400

080019fc <HAL_I2C_MspDeInit>:
 80019fc:	4b0b      	ldr	r3, [pc, #44]	@ (8001a2c <HAL_I2C_MspDeInit+0x30>)
 80019fe:	6802      	ldr	r2, [r0, #0]
 8001a00:	b510      	push	{r4, lr}
 8001a02:	429a      	cmp	r2, r3
 8001a04:	d000      	beq.n	8001a08 <HAL_I2C_MspDeInit+0xc>
 8001a06:	bd10      	pop	{r4, pc}
 8001a08:	4a09      	ldr	r2, [pc, #36]	@ (8001a30 <HAL_I2C_MspDeInit+0x34>)
 8001a0a:	490a      	ldr	r1, [pc, #40]	@ (8001a34 <HAL_I2C_MspDeInit+0x38>)
 8001a0c:	6bd3      	ldr	r3, [r2, #60]	@ 0x3c
 8001a0e:	480a      	ldr	r0, [pc, #40]	@ (8001a38 <HAL_I2C_MspDeInit+0x3c>)
 8001a10:	400b      	ands	r3, r1
 8001a12:	63d3      	str	r3, [r2, #60]	@ 0x3c
 8001a14:	2180      	movs	r1, #128	@ 0x80
 8001a16:	f000 fa93 	bl	8001f40 <HAL_GPIO_DeInit>
 8001a1a:	2140      	movs	r1, #64	@ 0x40
 8001a1c:	4806      	ldr	r0, [pc, #24]	@ (8001a38 <HAL_I2C_MspDeInit+0x3c>)
 8001a1e:	f000 fa8f 	bl	8001f40 <HAL_GPIO_DeInit>
 8001a22:	2017      	movs	r0, #23
 8001a24:	f000 f934 	bl	8001c90 <HAL_NVIC_DisableIRQ>
 8001a28:	e7ed      	b.n	8001a06 <HAL_I2C_MspDeInit+0xa>
 8001a2a:	46c0      	nop			@ (mov r8, r8)
 8001a2c:	40005400 	.word	0x40005400
 8001a30:	40021000 	.word	0x40021000
 8001a34:	ffdfffff 	.word	0xffdfffff
 8001a38:	50000400 	.word	0x50000400

08001a3c <HAL_TIM_Base_MspInit>:
 8001a3c:	6803      	ldr	r3, [r0, #0]
 8001a3e:	4a0f      	ldr	r2, [pc, #60]	@ (8001a7c <HAL_TIM_Base_MspInit+0x40>)
 8001a40:	b082      	sub	sp, #8
 8001a42:	4293      	cmp	r3, r2
 8001a44:	d00e      	beq.n	8001a64 <HAL_TIM_Base_MspInit+0x28>
 8001a46:	4a0e      	ldr	r2, [pc, #56]	@ (8001a80 <HAL_TIM_Base_MspInit+0x44>)
 8001a48:	4293      	cmp	r3, r2
 8001a4a:	d001      	beq.n	8001a50 <HAL_TIM_Base_MspInit+0x14>
 8001a4c:	b002      	add	sp, #8
 8001a4e:	4770      	bx	lr
 8001a50:	2302      	movs	r3, #2
 8001a52:	4a0c      	ldr	r2, [pc, #48]	@ (8001a84 <HAL_TIM_Base_MspInit+0x48>)
 8001a54:	6bd1      	ldr	r1, [r2, #60]	@ 0x3c
 8001a56:	4319      	orrs	r1, r3
 8001a58:	63d1      	str	r1, [r2, #60]	@ 0x3c
 8001a5a:	6bd2      	ldr	r2, [r2, #60]	@ 0x3c
 8001a5c:	4013      	ands	r3, r2
 8001a5e:	9301      	str	r3, [sp, #4]
 8001a60:	9b01      	ldr	r3, [sp, #4]
 8001a62:	e7f3      	b.n	8001a4c <HAL_TIM_Base_MspInit+0x10>
 8001a64:	2180      	movs	r1, #128	@ 0x80
 8001a66:	4b07      	ldr	r3, [pc, #28]	@ (8001a84 <HAL_TIM_Base_MspInit+0x48>)
 8001a68:	0109      	lsls	r1, r1, #4
 8001a6a:	6c1a      	ldr	r2, [r3, #64]	@ 0x40
 8001a6c:	430a      	orrs	r2, r1
 8001a6e:	641a      	str	r2, [r3, #64]	@ 0x40
 8001a70:	6c1b      	ldr	r3, [r3, #64]	@ 0x40
 8001a72:	400b      	ands	r3, r1
 8001a74:	9300      	str	r3, [sp, #0]
 8001a76:	9b00      	ldr	r3, [sp, #0]
 8001a78:	e7e8      	b.n	8001a4c <HAL_TIM_Base_MspInit+0x10>
 8001a7a:	46c0      	nop			@ (mov r8, r8)
 8001a7c:	40012c00 	.word	0x40012c00
 8001a80:	40000400 	.word	0x40000400
 8001a84:	40021000 	.word	0x40021000

08001a88 <NMI_Handler>:
 8001a88:	e7fe      	b.n	8001a88 <NMI_Handler>
 8001a8a:	46c0      	nop			@ (mov r8, r8)

08001a8c <HardFault_Handler>:
 8001a8c:	e7fe      	b.n	8001a8c <HardFault_Handler>
 8001a8e:	46c0      	nop			@ (mov r8, r8)

08001a90 <SVC_Handler>:
 8001a90:	4770      	bx	lr
 8001a92:	46c0      	nop			@ (mov r8, r8)

08001a94 <PendSV_Handler>:
 8001a94:	4770      	bx	lr
 8001a96:	46c0      	nop			@ (mov r8, r8)

08001a98 <SysTick_Handler>:
 8001a98:	b510      	push	{r4, lr}
 8001a9a:	f000 f885 	bl	8001ba8 <HAL_IncTick>
 8001a9e:	bd10      	pop	{r4, pc}

08001aa0 <I2C1_IRQHandler>:
 8001aa0:	4806      	ldr	r0, [pc, #24]	@ (8001abc <I2C1_IRQHandler+0x1c>)
 8001aa2:	b510      	push	{r4, lr}
 8001aa4:	6803      	ldr	r3, [r0, #0]
 8001aa6:	699a      	ldr	r2, [r3, #24]
 8001aa8:	23e0      	movs	r3, #224	@ 0xe0
 8001aaa:	00db      	lsls	r3, r3, #3
 8001aac:	421a      	tst	r2, r3
 8001aae:	d002      	beq.n	8001ab6 <I2C1_IRQHandler+0x16>
 8001ab0:	f000 ff66 	bl	8002980 <HAL_I2C_ER_IRQHandler>
 8001ab4:	bd10      	pop	{r4, pc}
 8001ab6:	f000 fdb5 	bl	8002624 <HAL_I2C_EV_IRQHandler>
 8001aba:	e7fb      	b.n	8001ab4 <I2C1_IRQHandler+0x14>
 8001abc:	20000118 	.word	0x20000118

08001ac0 <_getpid>:
 8001ac0:	2001      	movs	r0, #1
 8001ac2:	4770      	bx	lr

08001ac4 <_kill>:
 8001ac4:	b510      	push	{r4, lr}
 8001ac6:	f001 fe2b 	bl	8003720 <__errno>
 8001aca:	2316      	movs	r3, #22
 8001acc:	6003      	str	r3, [r0, #0]
 8001ace:	2001      	movs	r0, #1
 8001ad0:	4240      	negs	r0, r0
 8001ad2:	bd10      	pop	{r4, pc}

08001ad4 <_exit>:
 8001ad4:	b510      	push	{r4, lr}
 8001ad6:	f001 fe23 	bl	8003720 <__errno>
 8001ada:	2316      	movs	r3, #22
 8001adc:	6003      	str	r3, [r0, #0]
 8001ade:	e7fe      	b.n	8001ade <_exit+0xa>

08001ae0 <SystemInit>:
 8001ae0:	2280      	movs	r2, #128	@ 0x80
 8001ae2:	4b02      	ldr	r3, [pc, #8]	@ (8001aec <SystemInit+0xc>)
 8001ae4:	0512      	lsls	r2, r2, #20
 8001ae6:	609a      	str	r2, [r3, #8]
 8001ae8:	4770      	bx	lr
 8001aea:	46c0      	nop			@ (mov r8, r8)
 8001aec:	e000ed00 	.word	0xe000ed00

08001af0 <Reset_Handler>:

  .section .text.Reset_Handler
  .weak Reset_Handler
  .type Reset_Handler, %function
Reset_Handler:
  ldr   r0, =_estack
 8001af0:	480d      	ldr	r0, [pc, #52]	@ (8001b28 <LoopForever+0x2>)
  mov   sp, r0          /* set stack pointer */
 8001af2:	4685      	mov	sp, r0
/* Call the clock system initialization function.*/
  bl  SystemInit
 8001af4:	f7ff fff4 	bl	8001ae0 <SystemInit>

/* Copy the data segment initializers from flash to SRAM */
  movs r1, #0
 8001af8:	2100      	movs	r1, #0
  b LoopCopyDataInit
 8001afa:	e003      	b.n	8001b04 <LoopCopyDataInit>

08001afc <CopyDataInit>:

CopyDataInit:
  ldr r3, =_sidata
 8001afc:	4b0b      	ldr	r3, [pc, #44]	@ (8001b2c <LoopForever+0x6>)
  ldr r3, [r3, r1]
 8001afe:	585b      	ldr	r3, [r3, r1]
  str r3, [r0, r1]
 8001b00:	5043      	str	r3, [r0, r1]
  adds r1, r1, #4
 8001b02:	3104      	adds	r1, #4

08001b04 <LoopCopyDataInit>:

LoopCopyDataInit:
  ldr r0, =_sdata
 8001b04:	480a      	ldr	r0, [pc, #40]	@ (8001b30 <LoopForever+0xa>)
  ldr r3, =_edata
 8001b06:	4b0b      	ldr	r3, [pc, #44]	@ (8001b34 <LoopForever+0xe>)
  adds r2, r0, r1
 8001b08:	1842      	adds	r2, r0, r1
  cmp r2, r3
 8001b0a:	429a      	cmp	r2, r3
  bcc CopyDataInit
 8001b0c:	d3f6      	bcc.n	8001afc <CopyDataInit>
  ldr r2, =_sbss
 8001b0e:	4a0a      	ldr	r2, [pc, #40]	@ (8001b38 <LoopForever+0x12>)
  b LoopFillZerobss
 8001b10:	e002      	b.n	8001b18 <LoopFillZerobss>

08001b12 <FillZerobss>:
/* Zero fill the bss segment. */
FillZerobss:
  movs r3, #0
 8001b12:	2300      	movs	r3, #0
  str  r3, [r2]
 8001b14:	6013      	str	r3, [r2, #0]
  adds r2, r2, #4
 8001b16:	3204      	adds	r2, #4

08001b18 <LoopFillZerobss>:


LoopFillZerobss:
  ldr r3, = _ebss
 8001b18:	4b08      	ldr	r3, [pc, #32]	@ (8001b3c <LoopForever+0x16>)
  cmp r2, r3
 8001b1a:	429a      	cmp	r2, r3
  bcc FillZerobss
 8001b1c:	d3f9      	bcc.n	8001b12 <FillZerobss>


/* Call static constructors */
  bl __libc_init_array
 8001b1e:	f001 fe05 	bl	800372c <__libc_init_array>
/* Call the application's entry point.*/
  bl main
 8001b22:	f7ff fbbb 	bl	800129c <main>

08001b26 <LoopForever>:

LoopForever:
    b LoopForever
 8001b26:	e7fe      	b.n	8001b26 <LoopForever>
  ldr   r0, =_estack
 8001b28:	20001800 	.word	0x20001800
  ldr r3, =_sidata
 8001b2c:	080039d4 	.word	0x080039d4
  ldr r0, =_sdata
 8001b30:	20000000 	.word	0x20000000
  ldr r3, =_edata
 8001b34:	20000060 	.word	0x20000060
  ldr r2, =_sbss
 8001b38:	20000060 	.word	0x20000060
  ldr r3, = _ebss
 8001b3c:	200002ac 	.word	0x200002ac

08001b40 <ADC1_IRQHandler>:
 * @retval : None
*/
    .section .text.Default_Handler,"ax",%progbits
Default_Handler:
Infinite_Loop:
  b Infinite_Loop
 8001b40:	e7fe      	b.n	8001b40 <ADC1_IRQHandler>
	...

08001b44 <HAL_InitTick>:
 8001b44:	b570      	push	{r4, r5, r6, lr}
 8001b46:	4b0f      	ldr	r3, [pc, #60]	@ (8001b84 <HAL_InitTick+0x40>)
 8001b48:	0004      	movs	r4, r0
 8001b4a:	7819      	ldrb	r1, [r3, #0]
 8001b4c:	2900      	cmp	r1, #0
 8001b4e:	d101      	bne.n	8001b54 <HAL_InitTick+0x10>
 8001b50:	2001      	movs	r0, #1
 8001b52:	bd70      	pop	{r4, r5, r6, pc}
 8001b54:	20fa      	movs	r0, #250	@ 0xfa
 8001b56:	0080      	lsls	r0, r0, #2
 8001b58:	f7fe fad6 	bl	8000108 <__udivsi3>
 8001b5c:	4d0a      	ldr	r5, [pc, #40]	@ (8001b88 <HAL_InitTick+0x44>)
 8001b5e:	0001      	movs	r1, r0
 8001b60:	6828      	ldr	r0, [r5, #0]
 8001b62:	f7fe fad1 	bl	8000108 <__udivsi3>
 8001b66:	f000 f8a3 	bl	8001cb0 <HAL_SYSTICK_Config>
 8001b6a:	2800      	cmp	r0, #0
 8001b6c:	d1f0      	bne.n	8001b50 <HAL_InitTick+0xc>
 8001b6e:	2c03      	cmp	r4, #3
 8001b70:	d8ee      	bhi.n	8001b50 <HAL_InitTick+0xc>
 8001b72:	3801      	subs	r0, #1
 8001b74:	2200      	movs	r2, #0
 8001b76:	0021      	movs	r1, r4
 8001b78:	f000 f854 	bl	8001c24 <HAL_NVIC_SetPriority>
 8001b7c:	4b03      	ldr	r3, [pc, #12]	@ (8001b8c <HAL_InitTick+0x48>)
 8001b7e:	2000      	movs	r0, #0
 8001b80:	601c      	str	r4, [r3, #0]
 8001b82:	e7e6      	b.n	8001b52 <HAL_InitTick+0xe>
 8001b84:	20000008 	.word	0x20000008
 8001b88:	20000004 	.word	0x20000004
 8001b8c:	2000000c 	.word	0x2000000c

08001b90 <HAL_Init>:
 8001b90:	b510      	push	{r4, lr}
 8001b92:	2003      	movs	r0, #3
 8001b94:	f7ff ffd6 	bl	8001b44 <HAL_InitTick>
 8001b98:	1e04      	subs	r4, r0, #0
 8001b9a:	d002      	beq.n	8001ba2 <HAL_Init+0x12>
 8001b9c:	2401      	movs	r4, #1
 8001b9e:	0020      	movs	r0, r4
 8001ba0:	bd10      	pop	{r4, pc}
 8001ba2:	f7ff fec7 	bl	8001934 <HAL_MspInit>
 8001ba6:	e7fa      	b.n	8001b9e <HAL_Init+0xe>

08001ba8 <HAL_IncTick>:
 8001ba8:	4a03      	ldr	r2, [pc, #12]	@ (8001bb8 <HAL_IncTick+0x10>)
 8001baa:	4b04      	ldr	r3, [pc, #16]	@ (8001bbc <HAL_IncTick+0x14>)
 8001bac:	6811      	ldr	r1, [r2, #0]
 8001bae:	781b      	ldrb	r3, [r3, #0]
 8001bb0:	185b      	adds	r3, r3, r1
 8001bb2:	6013      	str	r3, [r2, #0]
 8001bb4:	4770      	bx	lr
 8001bb6:	46c0      	nop			@ (mov r8, r8)
 8001bb8:	2000016c 	.word	0x2000016c
 8001bbc:	20000008 	.word	0x20000008

08001bc0 <HAL_GetTick>:
 8001bc0:	4b01      	ldr	r3, [pc, #4]	@ (8001bc8 <HAL_GetTick+0x8>)
 8001bc2:	6818      	ldr	r0, [r3, #0]
 8001bc4:	4770      	bx	lr
 8001bc6:	46c0      	nop			@ (mov r8, r8)
 8001bc8:	2000016c 	.word	0x2000016c

08001bcc <HAL_Delay>:
 8001bcc:	b570      	push	{r4, r5, r6, lr}
 8001bce:	0004      	movs	r4, r0
 8001bd0:	f7ff fff6 	bl	8001bc0 <HAL_GetTick>
 8001bd4:	0005      	movs	r5, r0
 8001bd6:	1c63      	adds	r3, r4, #1
 8001bd8:	d002      	beq.n	8001be0 <HAL_Delay+0x14>
 8001bda:	4b04      	ldr	r3, [pc, #16]	@ (8001bec <HAL_Delay+0x20>)
 8001bdc:	781b      	ldrb	r3, [r3, #0]
 8001bde:	18e4      	adds	r4, r4, r3
 8001be0:	f7ff ffee 	bl	8001bc0 <HAL_GetTick>
 8001be4:	1b40      	subs	r0, r0, r5
 8001be6:	42a0      	cmp	r0, r4
 8001be8:	d3fa      	bcc.n	8001be0 <HAL_Delay+0x14>
 8001bea:	bd70      	pop	{r4, r5, r6, pc}
 8001bec:	20000008 	.word	0x20000008

08001bf0 <HAL_GetDEVID>:
 8001bf0:	4b02      	ldr	r3, [pc, #8]	@ (8001bfc <HAL_GetDEVID+0xc>)
 8001bf2:	6818      	ldr	r0, [r3, #0]
 8001bf4:	0500      	lsls	r0, r0, #20
 8001bf6:	0d00      	lsrs	r0, r0, #20
 8001bf8:	4770      	bx	lr
 8001bfa:	46c0      	nop			@ (mov r8, r8)
 8001bfc:	40015800 	.word	0x40015800

08001c00 <HAL_GetUIDw0>:
 8001c00:	4b01      	ldr	r3, [pc, #4]	@ (8001c08 <HAL_GetUIDw0+0x8>)
 8001c02:	6818      	ldr	r0, [r3, #0]
 8001c04:	4770      	bx	lr
 8001c06:	46c0      	nop			@ (mov r8, r8)
 8001c08:	1fff7550 	.word	0x1fff7550

08001c0c <HAL_GetUIDw1>:
 8001c0c:	4b01      	ldr	r3, [pc, #4]	@ (8001c14 <HAL_GetUIDw1+0x8>)
 8001c0e:	6818      	ldr	r0, [r3, #0]
 8001c10:	4770      	bx	lr
 8001c12:	46c0      	nop			@ (mov r8, r8)
 8001c14:	1fff7554 	.word	0x1fff7554

08001c18 <HAL_GetUIDw2>:
 8001c18:	4b01      	ldr	r3, [pc, #4]	@ (8001c20 <HAL_GetUIDw2+0x8>)
 8001c1a:	6818      	ldr	r0, [r3, #0]
 8001c1c:	4770      	bx	lr
 8001c1e:	46c0      	nop			@ (mov r8, r8)
 8001c20:	1fff7558 	.word	0x1fff7558

08001c24 <HAL_NVIC_SetPriority>:
 8001c24:	22ff      	movs	r2, #255	@ 0xff
 8001c26:	2303      	movs	r3, #3
 8001c28:	b510      	push	{r4, lr}
 8001c2a:	0014      	movs	r4, r2
 8001c2c:	4003      	ands	r3, r0
 8001c2e:	00db      	lsls	r3, r3, #3
 8001c30:	409c      	lsls	r4, r3
 8001c32:	0189      	lsls	r1, r1, #6
 8001c34:	400a      	ands	r2, r1
 8001c36:	43e4      	mvns	r4, r4
 8001c38:	409a      	lsls	r2, r3
 8001c3a:	2800      	cmp	r0, #0
 8001c3c:	db0b      	blt.n	8001c56 <HAL_NVIC_SetPriority+0x32>
 8001c3e:	4b0c      	ldr	r3, [pc, #48]	@ (8001c70 <HAL_NVIC_SetPriority+0x4c>)
 8001c40:	21c0      	movs	r1, #192	@ 0xc0
 8001c42:	469c      	mov	ip, r3
 8001c44:	0880      	lsrs	r0, r0, #2
 8001c46:	0080      	lsls	r0, r0, #2
 8001c48:	4460      	add	r0, ip
 8001c4a:	0089      	lsls	r1, r1, #2
 8001c4c:	5843      	ldr	r3, [r0, r1]
 8001c4e:	4023      	ands	r3, r4
 8001c50:	4313      	orrs	r3, r2
 8001c52:	5043      	str	r3, [r0, r1]
 8001c54:	bd10      	pop	{r4, pc}
 8001c56:	230f      	movs	r3, #15
 8001c58:	4906      	ldr	r1, [pc, #24]	@ (8001c74 <HAL_NVIC_SetPriority+0x50>)
 8001c5a:	4003      	ands	r3, r0
 8001c5c:	468c      	mov	ip, r1
 8001c5e:	3b08      	subs	r3, #8
 8001c60:	089b      	lsrs	r3, r3, #2
 8001c62:	009b      	lsls	r3, r3, #2
 8001c64:	4463      	add	r3, ip
 8001c66:	69d9      	ldr	r1, [r3, #28]
 8001c68:	400c      	ands	r4, r1
 8001c6a:	4314      	orrs	r4, r2
 8001c6c:	61dc      	str	r4, [r3, #28]
 8001c6e:	e7f1      	b.n	8001c54 <HAL_NVIC_SetPriority+0x30>
 8001c70:	e000e100 	.word	0xe000e100
 8001c74:	e000ed00 	.word	0xe000ed00

08001c78 <HAL_NVIC_EnableIRQ>:
 8001c78:	2800      	cmp	r0, #0
 8001c7a:	db05      	blt.n	8001c88 <HAL_NVIC_EnableIRQ+0x10>
 8001c7c:	221f      	movs	r2, #31
 8001c7e:	2301      	movs	r3, #1
 8001c80:	4002      	ands	r2, r0
 8001c82:	4093      	lsls	r3, r2
 8001c84:	4a01      	ldr	r2, [pc, #4]	@ (8001c8c <HAL_NVIC_EnableIRQ+0x14>)
 8001c86:	6013      	str	r3, [r2, #0]
 8001c88:	4770      	bx	lr
 8001c8a:	46c0      	nop			@ (mov r8, r8)
 8001c8c:	e000e100 	.word	0xe000e100

08001c90 <HAL_NVIC_DisableIRQ>:
 8001c90:	2800      	cmp	r0, #0
 8001c92:	db0a      	blt.n	8001caa <HAL_NVIC_DisableIRQ+0x1a>
 8001c94:	221f      	movs	r2, #31
 8001c96:	2301      	movs	r3, #1
 8001c98:	4002      	ands	r2, r0
 8001c9a:	4093      	lsls	r3, r2
 8001c9c:	2280      	movs	r2, #128	@ 0x80
 8001c9e:	4903      	ldr	r1, [pc, #12]	@ (8001cac <HAL_NVIC_DisableIRQ+0x1c>)
 8001ca0:	508b      	str	r3, [r1, r2]
 8001ca2:	f3bf 8f4f 	dsb	sy
 8001ca6:	f3bf 8f6f 	isb	sy
 8001caa:	4770      	bx	lr
 8001cac:	e000e100 	.word	0xe000e100

08001cb0 <HAL_SYSTICK_Config>:
 8001cb0:	2280      	movs	r2, #128	@ 0x80
 8001cb2:	1e43      	subs	r3, r0, #1
 8001cb4:	0452      	lsls	r2, r2, #17
 8001cb6:	2001      	movs	r0, #1
 8001cb8:	4293      	cmp	r3, r2
 8001cba:	d20e      	bcs.n	8001cda <HAL_SYSTICK_Config+0x2a>
 8001cbc:	21c0      	movs	r1, #192	@ 0xc0
 8001cbe:	4a07      	ldr	r2, [pc, #28]	@ (8001cdc <HAL_SYSTICK_Config+0x2c>)
 8001cc0:	4807      	ldr	r0, [pc, #28]	@ (8001ce0 <HAL_SYSTICK_Config+0x30>)
 8001cc2:	6053      	str	r3, [r2, #4]
 8001cc4:	6a03      	ldr	r3, [r0, #32]
 8001cc6:	0609      	lsls	r1, r1, #24
 8001cc8:	021b      	lsls	r3, r3, #8
 8001cca:	0a1b      	lsrs	r3, r3, #8
 8001ccc:	430b      	orrs	r3, r1
 8001cce:	6203      	str	r3, [r0, #32]
 8001cd0:	2300      	movs	r3, #0
 8001cd2:	2000      	movs	r0, #0
 8001cd4:	6093      	str	r3, [r2, #8]
 8001cd6:	3307      	adds	r3, #7
 8001cd8:	6013      	str	r3, [r2, #0]
 8001cda:	4770      	bx	lr
 8001cdc:	e000e010 	.word	0xe000e010
 8001ce0:	e000ed00 	.word	0xe000ed00

08001ce4 <HAL_DMA_Abort_IT>:
 8001ce4:	2224      	movs	r2, #36	@ 0x24
 8001ce6:	2301      	movs	r3, #1
 8001ce8:	b570      	push	{r4, r5, r6, lr}
 8001cea:	5483      	strb	r3, [r0, r2]
 8001cec:	3201      	adds	r2, #1
 8001cee:	5c82      	ldrb	r2, [r0, r2]
 8001cf0:	2a02      	cmp	r2, #2
 8001cf2:	d003      	beq.n	8001cfc <HAL_DMA_Abort_IT+0x18>
 8001cf4:	3303      	adds	r3, #3
 8001cf6:	63c3      	str	r3, [r0, #60]	@ 0x3c
 8001cf8:	2001      	movs	r0, #1
 8001cfa:	bd70      	pop	{r4, r5, r6, pc}
 8001cfc:	240e      	movs	r4, #14
 8001cfe:	261c      	movs	r6, #28
 8001d00:	6802      	ldr	r2, [r0, #0]
 8001d02:	6811      	ldr	r1, [r2, #0]
 8001d04:	43a1      	bics	r1, r4
 8001d06:	6011      	str	r1, [r2, #0]
 8001d08:	6811      	ldr	r1, [r2, #0]
 8001d0a:	4c13      	ldr	r4, [pc, #76]	@ (8001d58 <HAL_DMA_Abort_IT+0x74>)
 8001d0c:	4399      	bics	r1, r3
 8001d0e:	6011      	str	r1, [r2, #0]
 8001d10:	6c41      	ldr	r1, [r0, #68]	@ 0x44
 8001d12:	680a      	ldr	r2, [r1, #0]
 8001d14:	4022      	ands	r2, r4
 8001d16:	600a      	str	r2, [r1, #0]
 8001d18:	6c02      	ldr	r2, [r0, #64]	@ 0x40
 8001d1a:	4910      	ldr	r1, [pc, #64]	@ (8001d5c <HAL_DMA_Abort_IT+0x78>)
 8001d1c:	4032      	ands	r2, r6
 8001d1e:	4093      	lsls	r3, r2
 8001d20:	684d      	ldr	r5, [r1, #4]
 8001d22:	432b      	orrs	r3, r5
 8001d24:	604b      	str	r3, [r1, #4]
 8001d26:	6cc2      	ldr	r2, [r0, #76]	@ 0x4c
 8001d28:	6c83      	ldr	r3, [r0, #72]	@ 0x48
 8001d2a:	605a      	str	r2, [r3, #4]
 8001d2c:	6d03      	ldr	r3, [r0, #80]	@ 0x50
 8001d2e:	2b00      	cmp	r3, #0
 8001d30:	d005      	beq.n	8001d3e <HAL_DMA_Abort_IT+0x5a>
 8001d32:	681a      	ldr	r2, [r3, #0]
 8001d34:	4022      	ands	r2, r4
 8001d36:	601a      	str	r2, [r3, #0]
 8001d38:	6d43      	ldr	r3, [r0, #84]	@ 0x54
 8001d3a:	6d82      	ldr	r2, [r0, #88]	@ 0x58
 8001d3c:	605a      	str	r2, [r3, #4]
 8001d3e:	2325      	movs	r3, #37	@ 0x25
 8001d40:	2201      	movs	r2, #1
 8001d42:	54c2      	strb	r2, [r0, r3]
 8001d44:	2200      	movs	r2, #0
 8001d46:	3b01      	subs	r3, #1
 8001d48:	54c2      	strb	r2, [r0, r3]
 8001d4a:	6b83      	ldr	r3, [r0, #56]	@ 0x38
 8001d4c:	2b00      	cmp	r3, #0
 8001d4e:	d000      	beq.n	8001d52 <HAL_DMA_Abort_IT+0x6e>
 8001d50:	4798      	blx	r3
 8001d52:	2000      	movs	r0, #0
 8001d54:	e7d1      	b.n	8001cfa <HAL_DMA_Abort_IT+0x16>
 8001d56:	46c0      	nop			@ (mov r8, r8)
 8001d58:	fffffeff 	.word	0xfffffeff
 8001d5c:	40020000 	.word	0x40020000

08001d60 <HAL_DMA_GetState>:
 8001d60:	2325      	movs	r3, #37	@ 0x25
 8001d62:	5cc0      	ldrb	r0, [r0, r3]
 8001d64:	b2c0      	uxtb	r0, r0
 8001d66:	4770      	bx	lr

08001d68 <HAL_GPIO_Init>:
 8001d68:	b5f0      	push	{r4, r5, r6, r7, lr}
 8001d6a:	4645      	mov	r5, r8
 8001d6c:	46de      	mov	lr, fp
 8001d6e:	4657      	mov	r7, sl
 8001d70:	464e      	mov	r6, r9
 8001d72:	b5e0      	push	{r5, r6, r7, lr}
 8001d74:	680d      	ldr	r5, [r1, #0]
 8001d76:	2300      	movs	r3, #0
 8001d78:	b083      	sub	sp, #12
 8001d7a:	2d00      	cmp	r5, #0
 8001d7c:	d066      	beq.n	8001e4c <HAL_GPIO_Init+0xe4>
 8001d7e:	4a6c      	ldr	r2, [pc, #432]	@ (8001f30 <HAL_GPIO_Init+0x1c8>)
 8001d80:	46aa      	mov	sl, r5
 8001d82:	4693      	mov	fp, r2
 8001d84:	4689      	mov	r9, r1
 8001d86:	e00f      	b.n	8001da8 <HAL_GPIO_Init+0x40>
 8001d88:	6801      	ldr	r1, [r0, #0]
 8001d8a:	9c00      	ldr	r4, [sp, #0]
 8001d8c:	4021      	ands	r1, r4
 8001d8e:	9c01      	ldr	r4, [sp, #4]
 8001d90:	430c      	orrs	r4, r1
 8001d92:	4661      	mov	r1, ip
 8001d94:	3901      	subs	r1, #1
 8001d96:	6004      	str	r4, [r0, #0]
 8001d98:	2901      	cmp	r1, #1
 8001d9a:	d93d      	bls.n	8001e18 <HAL_GPIO_Init+0xb0>
 8001d9c:	2a03      	cmp	r2, #3
 8001d9e:	d15c      	bne.n	8001e5a <HAL_GPIO_Init+0xf2>
 8001da0:	4652      	mov	r2, sl
 8001da2:	3301      	adds	r3, #1
 8001da4:	40da      	lsrs	r2, r3
 8001da6:	d051      	beq.n	8001e4c <HAL_GPIO_Init+0xe4>
 8001da8:	2501      	movs	r5, #1
 8001daa:	4657      	mov	r7, sl
 8001dac:	409d      	lsls	r5, r3
 8001dae:	4652      	mov	r2, sl
 8001db0:	402f      	ands	r7, r5
 8001db2:	422a      	tst	r2, r5
 8001db4:	d0f4      	beq.n	8001da0 <HAL_GPIO_Init+0x38>
 8001db6:	464a      	mov	r2, r9
 8001db8:	6852      	ldr	r2, [r2, #4]
 8001dba:	2410      	movs	r4, #16
 8001dbc:	0011      	movs	r1, r2
 8001dbe:	005e      	lsls	r6, r3, #1
 8001dc0:	43a1      	bics	r1, r4
 8001dc2:	3c0d      	subs	r4, #13
 8001dc4:	40b4      	lsls	r4, r6
 8001dc6:	468c      	mov	ip, r1
 8001dc8:	43e1      	mvns	r1, r4
 8001dca:	9100      	str	r1, [sp, #0]
 8001dcc:	2103      	movs	r1, #3
 8001dce:	4011      	ands	r1, r2
 8001dd0:	40b1      	lsls	r1, r6
 8001dd2:	9101      	str	r1, [sp, #4]
 8001dd4:	4661      	mov	r1, ip
 8001dd6:	2902      	cmp	r1, #2
 8001dd8:	d1d6      	bne.n	8001d88 <HAL_GPIO_Init+0x20>
 8001dda:	08df      	lsrs	r7, r3, #3
 8001ddc:	00bf      	lsls	r7, r7, #2
 8001dde:	46bc      	mov	ip, r7
 8001de0:	4484      	add	ip, r0
 8001de2:	4661      	mov	r1, ip
 8001de4:	6a0c      	ldr	r4, [r1, #32]
 8001de6:	2107      	movs	r1, #7
 8001de8:	4019      	ands	r1, r3
 8001dea:	0089      	lsls	r1, r1, #2
 8001dec:	4688      	mov	r8, r1
 8001dee:	210f      	movs	r1, #15
 8001df0:	4647      	mov	r7, r8
 8001df2:	40b9      	lsls	r1, r7
 8001df4:	0027      	movs	r7, r4
 8001df6:	438f      	bics	r7, r1
 8001df8:	003c      	movs	r4, r7
 8001dfa:	464f      	mov	r7, r9
 8001dfc:	210f      	movs	r1, #15
 8001dfe:	693f      	ldr	r7, [r7, #16]
 8001e00:	400f      	ands	r7, r1
 8001e02:	4641      	mov	r1, r8
 8001e04:	408f      	lsls	r7, r1
 8001e06:	4661      	mov	r1, ip
 8001e08:	4327      	orrs	r7, r4
 8001e0a:	620f      	str	r7, [r1, #32]
 8001e0c:	6807      	ldr	r7, [r0, #0]
 8001e0e:	9900      	ldr	r1, [sp, #0]
 8001e10:	400f      	ands	r7, r1
 8001e12:	9901      	ldr	r1, [sp, #4]
 8001e14:	4339      	orrs	r1, r7
 8001e16:	6001      	str	r1, [r0, #0]
 8001e18:	6887      	ldr	r7, [r0, #8]
 8001e1a:	9900      	ldr	r1, [sp, #0]
 8001e1c:	0912      	lsrs	r2, r2, #4
 8001e1e:	400f      	ands	r7, r1
 8001e20:	4649      	mov	r1, r9
 8001e22:	68c9      	ldr	r1, [r1, #12]
 8001e24:	409a      	lsls	r2, r3
 8001e26:	40b1      	lsls	r1, r6
 8001e28:	4339      	orrs	r1, r7
 8001e2a:	6081      	str	r1, [r0, #8]
 8001e2c:	6841      	ldr	r1, [r0, #4]
 8001e2e:	3301      	adds	r3, #1
 8001e30:	43a9      	bics	r1, r5
 8001e32:	430a      	orrs	r2, r1
 8001e34:	6042      	str	r2, [r0, #4]
 8001e36:	68c1      	ldr	r1, [r0, #12]
 8001e38:	9a00      	ldr	r2, [sp, #0]
 8001e3a:	4011      	ands	r1, r2
 8001e3c:	464a      	mov	r2, r9
 8001e3e:	6892      	ldr	r2, [r2, #8]
 8001e40:	40b2      	lsls	r2, r6
 8001e42:	430a      	orrs	r2, r1
 8001e44:	60c2      	str	r2, [r0, #12]
 8001e46:	4652      	mov	r2, sl
 8001e48:	40da      	lsrs	r2, r3
 8001e4a:	d1ad      	bne.n	8001da8 <HAL_GPIO_Init+0x40>
 8001e4c:	b003      	add	sp, #12
 8001e4e:	bcf0      	pop	{r4, r5, r6, r7}
 8001e50:	46bb      	mov	fp, r7
 8001e52:	46b2      	mov	sl, r6
 8001e54:	46a9      	mov	r9, r5
 8001e56:	46a0      	mov	r8, r4
 8001e58:	bdf0      	pop	{r4, r5, r6, r7, pc}
 8001e5a:	68c1      	ldr	r1, [r0, #12]
 8001e5c:	9c00      	ldr	r4, [sp, #0]
 8001e5e:	400c      	ands	r4, r1
 8001e60:	4649      	mov	r1, r9
 8001e62:	6889      	ldr	r1, [r1, #8]
 8001e64:	40b1      	lsls	r1, r6
 8001e66:	4321      	orrs	r1, r4
 8001e68:	60c1      	str	r1, [r0, #12]
 8001e6a:	2180      	movs	r1, #128	@ 0x80
 8001e6c:	0549      	lsls	r1, r1, #21
 8001e6e:	420a      	tst	r2, r1
 8001e70:	d096      	beq.n	8001da0 <HAL_GPIO_Init+0x38>
 8001e72:	2503      	movs	r5, #3
 8001e74:	260f      	movs	r6, #15
 8001e76:	4c2e      	ldr	r4, [pc, #184]	@ (8001f30 <HAL_GPIO_Init+0x1c8>)
 8001e78:	401d      	ands	r5, r3
 8001e7a:	46a4      	mov	ip, r4
 8001e7c:	00ed      	lsls	r5, r5, #3
 8001e7e:	40ae      	lsls	r6, r5
 8001e80:	0899      	lsrs	r1, r3, #2
 8001e82:	0089      	lsls	r1, r1, #2
 8001e84:	4461      	add	r1, ip
 8001e86:	6e0c      	ldr	r4, [r1, #96]	@ 0x60
 8001e88:	43b4      	bics	r4, r6
 8001e8a:	26a0      	movs	r6, #160	@ 0xa0
 8001e8c:	05f6      	lsls	r6, r6, #23
 8001e8e:	42b0      	cmp	r0, r6
 8001e90:	d00b      	beq.n	8001eaa <HAL_GPIO_Init+0x142>
 8001e92:	4e28      	ldr	r6, [pc, #160]	@ (8001f34 <HAL_GPIO_Init+0x1cc>)
 8001e94:	42b0      	cmp	r0, r6
 8001e96:	d043      	beq.n	8001f20 <HAL_GPIO_Init+0x1b8>
 8001e98:	4e27      	ldr	r6, [pc, #156]	@ (8001f38 <HAL_GPIO_Init+0x1d0>)
 8001e9a:	42b0      	cmp	r0, r6
 8001e9c:	d044      	beq.n	8001f28 <HAL_GPIO_Init+0x1c0>
 8001e9e:	4e27      	ldr	r6, [pc, #156]	@ (8001f3c <HAL_GPIO_Init+0x1d4>)
 8001ea0:	42b0      	cmp	r0, r6
 8001ea2:	d039      	beq.n	8001f18 <HAL_GPIO_Init+0x1b0>
 8001ea4:	2606      	movs	r6, #6
 8001ea6:	40ae      	lsls	r6, r5
 8001ea8:	4334      	orrs	r4, r6
 8001eaa:	660c      	str	r4, [r1, #96]	@ 0x60
 8001eac:	2480      	movs	r4, #128	@ 0x80
 8001eae:	4659      	mov	r1, fp
 8001eb0:	5909      	ldr	r1, [r1, r4]
 8001eb2:	43fc      	mvns	r4, r7
 8001eb4:	03d5      	lsls	r5, r2, #15
 8001eb6:	d418      	bmi.n	8001eea <HAL_GPIO_Init+0x182>
 8001eb8:	465d      	mov	r5, fp
 8001eba:	2680      	movs	r6, #128	@ 0x80
 8001ebc:	4021      	ands	r1, r4
 8001ebe:	51a9      	str	r1, [r5, r6]
 8001ec0:	2184      	movs	r1, #132	@ 0x84
 8001ec2:	5869      	ldr	r1, [r5, r1]
 8001ec4:	0395      	lsls	r5, r2, #14
 8001ec6:	d418      	bmi.n	8001efa <HAL_GPIO_Init+0x192>
 8001ec8:	465e      	mov	r6, fp
 8001eca:	2584      	movs	r5, #132	@ 0x84
 8001ecc:	4021      	ands	r1, r4
 8001ece:	5171      	str	r1, [r6, r5]
 8001ed0:	6831      	ldr	r1, [r6, #0]
 8001ed2:	02d5      	lsls	r5, r2, #11
 8001ed4:	d418      	bmi.n	8001f08 <HAL_GPIO_Init+0x1a0>
 8001ed6:	465d      	mov	r5, fp
 8001ed8:	4021      	ands	r1, r4
 8001eda:	6029      	str	r1, [r5, #0]
 8001edc:	6869      	ldr	r1, [r5, #4]
 8001ede:	0292      	lsls	r2, r2, #10
 8001ee0:	d418      	bmi.n	8001f14 <HAL_GPIO_Init+0x1ac>
 8001ee2:	4021      	ands	r1, r4
 8001ee4:	465a      	mov	r2, fp
 8001ee6:	6051      	str	r1, [r2, #4]
 8001ee8:	e75a      	b.n	8001da0 <HAL_GPIO_Init+0x38>
 8001eea:	465d      	mov	r5, fp
 8001eec:	2680      	movs	r6, #128	@ 0x80
 8001eee:	4339      	orrs	r1, r7
 8001ef0:	51a9      	str	r1, [r5, r6]
 8001ef2:	2184      	movs	r1, #132	@ 0x84
 8001ef4:	5869      	ldr	r1, [r5, r1]
 8001ef6:	0395      	lsls	r5, r2, #14
 8001ef8:	d5e6      	bpl.n	8001ec8 <HAL_GPIO_Init+0x160>
 8001efa:	465e      	mov	r6, fp
 8001efc:	2584      	movs	r5, #132	@ 0x84
 8001efe:	4339      	orrs	r1, r7
 8001f00:	5171      	str	r1, [r6, r5]
 8001f02:	6831      	ldr	r1, [r6, #0]
 8001f04:	02d5      	lsls	r5, r2, #11
 8001f06:	d5e6      	bpl.n	8001ed6 <HAL_GPIO_Init+0x16e>
 8001f08:	465d      	mov	r5, fp
 8001f0a:	4339      	orrs	r1, r7
 8001f0c:	6029      	str	r1, [r5, #0]
 8001f0e:	6869      	ldr	r1, [r5, #4]
 8001f10:	0292      	lsls	r2, r2, #10
 8001f12:	d5e6      	bpl.n	8001ee2 <HAL_GPIO_Init+0x17a>
 8001f14:	4339      	orrs	r1, r7
 8001f16:	e7e5      	b.n	8001ee4 <HAL_GPIO_Init+0x17c>
 8001f18:	2605      	movs	r6, #5
 8001f1a:	40ae      	lsls	r6, r5
 8001f1c:	4334      	orrs	r4, r6
 8001f1e:	e7c4      	b.n	8001eaa <HAL_GPIO_Init+0x142>
 8001f20:	2601      	movs	r6, #1
 8001f22:	40ae      	lsls	r6, r5
 8001f24:	4334      	orrs	r4, r6
 8001f26:	e7c0      	b.n	8001eaa <HAL_GPIO_Init+0x142>
 8001f28:	2602      	movs	r6, #2
 8001f2a:	40ae      	lsls	r6, r5
 8001f2c:	4334      	orrs	r4, r6
 8001f2e:	e7bc      	b.n	8001eaa <HAL_GPIO_Init+0x142>
 8001f30:	40021800 	.word	0x40021800
 8001f34:	50000400 	.word	0x50000400
 8001f38:	50000800 	.word	0x50000800
 8001f3c:	50001400 	.word	0x50001400

08001f40 <HAL_GPIO_DeInit>:
 8001f40:	b5f0      	push	{r4, r5, r6, r7, lr}
 8001f42:	46de      	mov	lr, fp
 8001f44:	4657      	mov	r7, sl
 8001f46:	464e      	mov	r6, r9
 8001f48:	4645      	mov	r5, r8
 8001f4a:	b5e0      	push	{r5, r6, r7, lr}
 8001f4c:	2300      	movs	r3, #0
 8001f4e:	b083      	sub	sp, #12
 8001f50:	2900      	cmp	r1, #0
 8001f52:	d065      	beq.n	8002020 <HAL_GPIO_DeInit+0xe0>
 8001f54:	2201      	movs	r2, #1
 8001f56:	4691      	mov	r9, r2
 8001f58:	3202      	adds	r2, #2
 8001f5a:	4693      	mov	fp, r2
 8001f5c:	4a3a      	ldr	r2, [pc, #232]	@ (8002048 <HAL_GPIO_DeInit+0x108>)
 8001f5e:	4690      	mov	r8, r2
 8001f60:	e044      	b.n	8001fec <HAL_GPIO_DeInit+0xac>
 8001f62:	4c3a      	ldr	r4, [pc, #232]	@ (800204c <HAL_GPIO_DeInit+0x10c>)
 8001f64:	42a0      	cmp	r0, r4
 8001f66:	d062      	beq.n	800202e <HAL_GPIO_DeInit+0xee>
 8001f68:	4c39      	ldr	r4, [pc, #228]	@ (8002050 <HAL_GPIO_DeInit+0x110>)
 8001f6a:	42a0      	cmp	r0, r4
 8001f6c:	d063      	beq.n	8002036 <HAL_GPIO_DeInit+0xf6>
 8001f6e:	4c39      	ldr	r4, [pc, #228]	@ (8002054 <HAL_GPIO_DeInit+0x114>)
 8001f70:	42a0      	cmp	r0, r4
 8001f72:	d064      	beq.n	800203e <HAL_GPIO_DeInit+0xfe>
 8001f74:	2406      	movs	r4, #6
 8001f76:	40ac      	lsls	r4, r5
 8001f78:	0025      	movs	r5, r4
 8001f7a:	42ae      	cmp	r6, r5
 8001f7c:	d114      	bne.n	8001fa8 <HAL_GPIO_DeInit+0x68>
 8001f7e:	2480      	movs	r4, #128	@ 0x80
 8001f80:	4645      	mov	r5, r8
 8001f82:	4646      	mov	r6, r8
 8001f84:	592d      	ldr	r5, [r5, r4]
 8001f86:	43bd      	bics	r5, r7
 8001f88:	5135      	str	r5, [r6, r4]
 8001f8a:	3404      	adds	r4, #4
 8001f8c:	5935      	ldr	r5, [r6, r4]
 8001f8e:	43bd      	bics	r5, r7
 8001f90:	5135      	str	r5, [r6, r4]
 8001f92:	4664      	mov	r4, ip
 8001f94:	6835      	ldr	r5, [r6, #0]
 8001f96:	43bd      	bics	r5, r7
 8001f98:	6035      	str	r5, [r6, #0]
 8001f9a:	6875      	ldr	r5, [r6, #4]
 8001f9c:	43bd      	bics	r5, r7
 8001f9e:	6075      	str	r5, [r6, #4]
 8001fa0:	9e01      	ldr	r6, [sp, #4]
 8001fa2:	6e35      	ldr	r5, [r6, #96]	@ 0x60
 8001fa4:	43a5      	bics	r5, r4
 8001fa6:	6635      	str	r5, [r6, #96]	@ 0x60
 8001fa8:	465e      	mov	r6, fp
 8001faa:	005d      	lsls	r5, r3, #1
 8001fac:	40ae      	lsls	r6, r5
 8001fae:	6804      	ldr	r4, [r0, #0]
 8001fb0:	0035      	movs	r5, r6
 8001fb2:	4334      	orrs	r4, r6
 8001fb4:	6004      	str	r4, [r0, #0]
 8001fb6:	08dc      	lsrs	r4, r3, #3
 8001fb8:	00a4      	lsls	r4, r4, #2
 8001fba:	1904      	adds	r4, r0, r4
 8001fbc:	6a26      	ldr	r6, [r4, #32]
 8001fbe:	2707      	movs	r7, #7
 8001fc0:	46b4      	mov	ip, r6
 8001fc2:	260f      	movs	r6, #15
 8001fc4:	401f      	ands	r7, r3
 8001fc6:	00bf      	lsls	r7, r7, #2
 8001fc8:	40be      	lsls	r6, r7
 8001fca:	0037      	movs	r7, r6
 8001fcc:	4666      	mov	r6, ip
 8001fce:	43be      	bics	r6, r7
 8001fd0:	6226      	str	r6, [r4, #32]
 8001fd2:	6884      	ldr	r4, [r0, #8]
 8001fd4:	43ac      	bics	r4, r5
 8001fd6:	6084      	str	r4, [r0, #8]
 8001fd8:	6844      	ldr	r4, [r0, #4]
 8001fda:	4394      	bics	r4, r2
 8001fdc:	6044      	str	r4, [r0, #4]
 8001fde:	68c2      	ldr	r2, [r0, #12]
 8001fe0:	43aa      	bics	r2, r5
 8001fe2:	60c2      	str	r2, [r0, #12]
 8001fe4:	000a      	movs	r2, r1
 8001fe6:	3301      	adds	r3, #1
 8001fe8:	40da      	lsrs	r2, r3
 8001fea:	d019      	beq.n	8002020 <HAL_GPIO_DeInit+0xe0>
 8001fec:	464a      	mov	r2, r9
 8001fee:	000f      	movs	r7, r1
 8001ff0:	409a      	lsls	r2, r3
 8001ff2:	4017      	ands	r7, r2
 8001ff4:	4211      	tst	r1, r2
 8001ff6:	d0f5      	beq.n	8001fe4 <HAL_GPIO_DeInit+0xa4>
 8001ff8:	4d13      	ldr	r5, [pc, #76]	@ (8002048 <HAL_GPIO_DeInit+0x108>)
 8001ffa:	089c      	lsrs	r4, r3, #2
 8001ffc:	46ac      	mov	ip, r5
 8001ffe:	00a4      	lsls	r4, r4, #2
 8002000:	465d      	mov	r5, fp
 8002002:	4464      	add	r4, ip
 8002004:	6e26      	ldr	r6, [r4, #96]	@ 0x60
 8002006:	9401      	str	r4, [sp, #4]
 8002008:	240f      	movs	r4, #15
 800200a:	401d      	ands	r5, r3
 800200c:	00ed      	lsls	r5, r5, #3
 800200e:	40ac      	lsls	r4, r5
 8002010:	46a4      	mov	ip, r4
 8002012:	4026      	ands	r6, r4
 8002014:	24a0      	movs	r4, #160	@ 0xa0
 8002016:	05e4      	lsls	r4, r4, #23
 8002018:	42a0      	cmp	r0, r4
 800201a:	d1a2      	bne.n	8001f62 <HAL_GPIO_DeInit+0x22>
 800201c:	2500      	movs	r5, #0
 800201e:	e7ac      	b.n	8001f7a <HAL_GPIO_DeInit+0x3a>
 8002020:	b003      	add	sp, #12
 8002022:	bcf0      	pop	{r4, r5, r6, r7}
 8002024:	46bb      	mov	fp, r7
 8002026:	46b2      	mov	sl, r6
 8002028:	46a9      	mov	r9, r5
 800202a:	46a0      	mov	r8, r4
 800202c:	bdf0      	pop	{r4, r5, r6, r7, pc}
 800202e:	464c      	mov	r4, r9
 8002030:	40ac      	lsls	r4, r5
 8002032:	0025      	movs	r5, r4
 8002034:	e7a1      	b.n	8001f7a <HAL_GPIO_DeInit+0x3a>
 8002036:	2402      	movs	r4, #2
 8002038:	40ac      	lsls	r4, r5
 800203a:	0025      	movs	r5, r4
 800203c:	e79d      	b.n	8001f7a <HAL_GPIO_DeInit+0x3a>
 800203e:	2405      	movs	r4, #5
 8002040:	40ac      	lsls	r4, r5
 8002042:	0025      	movs	r5, r4
 8002044:	e799      	b.n	8001f7a <HAL_GPIO_DeInit+0x3a>
 8002046:	46c0      	nop			@ (mov r8, r8)
 8002048:	40021800 	.word	0x40021800
 800204c:	50000400 	.word	0x50000400
 8002050:	50000800 	.word	0x50000800
 8002054:	50001400 	.word	0x50001400

08002058 <HAL_GPIO_WritePin>:
 8002058:	2a00      	cmp	r2, #0
 800205a:	d001      	beq.n	8002060 <HAL_GPIO_WritePin+0x8>
 800205c:	6181      	str	r1, [r0, #24]
 800205e:	4770      	bx	lr
 8002060:	6281      	str	r1, [r0, #40]	@ 0x28
 8002062:	e7fc      	b.n	800205e <HAL_GPIO_WritePin+0x6>

08002064 <HAL_GPIO_TogglePin>:
 8002064:	6942      	ldr	r2, [r0, #20]
 8002066:	0013      	movs	r3, r2
 8002068:	400b      	ands	r3, r1
 800206a:	041b      	lsls	r3, r3, #16
 800206c:	4391      	bics	r1, r2
 800206e:	430b      	orrs	r3, r1
 8002070:	6183      	str	r3, [r0, #24]
 8002072:	4770      	bx	lr

08002074 <I2C_IsErrorOccurred>:
 8002074:	b5f0      	push	{r4, r5, r6, r7, lr}
 8002076:	0016      	movs	r6, r2
 8002078:	2210      	movs	r2, #16
 800207a:	46c6      	mov	lr, r8
 800207c:	0015      	movs	r5, r2
 800207e:	6803      	ldr	r3, [r0, #0]
 8002080:	000f      	movs	r7, r1
 8002082:	6999      	ldr	r1, [r3, #24]
 8002084:	0004      	movs	r4, r0
 8002086:	b500      	push	{lr}
 8002088:	2000      	movs	r0, #0
 800208a:	400d      	ands	r5, r1
 800208c:	420a      	tst	r2, r1
 800208e:	d015      	beq.n	80020bc <I2C_IsErrorOccurred+0x48>
 8002090:	2520      	movs	r5, #32
 8002092:	61da      	str	r2, [r3, #28]
 8002094:	0029      	movs	r1, r5
 8002096:	699a      	ldr	r2, [r3, #24]
 8002098:	4011      	ands	r1, r2
 800209a:	4688      	mov	r8, r1
 800209c:	4215      	tst	r5, r2
 800209e:	d000      	beq.n	80020a2 <I2C_IsErrorOccurred+0x2e>
 80020a0:	e07b      	b.n	800219a <I2C_IsErrorOccurred+0x126>
 80020a2:	1c7a      	adds	r2, r7, #1
 80020a4:	d147      	bne.n	8002136 <I2C_IsErrorOccurred+0xc2>
 80020a6:	2120      	movs	r1, #32
 80020a8:	699a      	ldr	r2, [r3, #24]
 80020aa:	4211      	tst	r1, r2
 80020ac:	d0fc      	beq.n	80020a8 <I2C_IsErrorOccurred+0x34>
 80020ae:	2220      	movs	r2, #32
 80020b0:	61da      	str	r2, [r3, #28]
 80020b2:	2504      	movs	r5, #4
 80020b4:	4642      	mov	r2, r8
 80020b6:	432a      	orrs	r2, r5
 80020b8:	0015      	movs	r5, r2
 80020ba:	2001      	movs	r0, #1
 80020bc:	2180      	movs	r1, #128	@ 0x80
 80020be:	699a      	ldr	r2, [r3, #24]
 80020c0:	0049      	lsls	r1, r1, #1
 80020c2:	420a      	tst	r2, r1
 80020c4:	d02c      	beq.n	8002120 <I2C_IsErrorOccurred+0xac>
 80020c6:	2001      	movs	r0, #1
 80020c8:	61d9      	str	r1, [r3, #28]
 80020ca:	4305      	orrs	r5, r0
 80020cc:	0551      	lsls	r1, r2, #21
 80020ce:	d504      	bpl.n	80020da <I2C_IsErrorOccurred+0x66>
 80020d0:	2108      	movs	r1, #8
 80020d2:	430d      	orrs	r5, r1
 80020d4:	2180      	movs	r1, #128	@ 0x80
 80020d6:	00c9      	lsls	r1, r1, #3
 80020d8:	61d9      	str	r1, [r3, #28]
 80020da:	0592      	lsls	r2, r2, #22
 80020dc:	d504      	bpl.n	80020e8 <I2C_IsErrorOccurred+0x74>
 80020de:	2202      	movs	r2, #2
 80020e0:	4315      	orrs	r5, r2
 80020e2:	32ff      	adds	r2, #255	@ 0xff
 80020e4:	32ff      	adds	r2, #255	@ 0xff
 80020e6:	61da      	str	r2, [r3, #28]
 80020e8:	699a      	ldr	r2, [r3, #24]
 80020ea:	0792      	lsls	r2, r2, #30
 80020ec:	d501      	bpl.n	80020f2 <I2C_IsErrorOccurred+0x7e>
 80020ee:	2200      	movs	r2, #0
 80020f0:	629a      	str	r2, [r3, #40]	@ 0x28
 80020f2:	2201      	movs	r2, #1
 80020f4:	6999      	ldr	r1, [r3, #24]
 80020f6:	420a      	tst	r2, r1
 80020f8:	d019      	beq.n	800212e <I2C_IsErrorOccurred+0xba>
 80020fa:	685a      	ldr	r2, [r3, #4]
 80020fc:	4928      	ldr	r1, [pc, #160]	@ (80021a0 <I2C_IsErrorOccurred+0x12c>)
 80020fe:	2001      	movs	r0, #1
 8002100:	400a      	ands	r2, r1
 8002102:	605a      	str	r2, [r3, #4]
 8002104:	6c63      	ldr	r3, [r4, #68]	@ 0x44
 8002106:	2220      	movs	r2, #32
 8002108:	432b      	orrs	r3, r5
 800210a:	6463      	str	r3, [r4, #68]	@ 0x44
 800210c:	2341      	movs	r3, #65	@ 0x41
 800210e:	54e2      	strb	r2, [r4, r3]
 8002110:	2300      	movs	r3, #0
 8002112:	3222      	adds	r2, #34	@ 0x22
 8002114:	54a3      	strb	r3, [r4, r2]
 8002116:	3a02      	subs	r2, #2
 8002118:	54a3      	strb	r3, [r4, r2]
 800211a:	bc80      	pop	{r7}
 800211c:	46b8      	mov	r8, r7
 800211e:	bdf0      	pop	{r4, r5, r6, r7, pc}
 8002120:	0551      	lsls	r1, r2, #21
 8002122:	d4d5      	bmi.n	80020d0 <I2C_IsErrorOccurred+0x5c>
 8002124:	0592      	lsls	r2, r2, #22
 8002126:	d4da      	bmi.n	80020de <I2C_IsErrorOccurred+0x6a>
 8002128:	2800      	cmp	r0, #0
 800212a:	d0f6      	beq.n	800211a <I2C_IsErrorOccurred+0xa6>
 800212c:	e7dc      	b.n	80020e8 <I2C_IsErrorOccurred+0x74>
 800212e:	6999      	ldr	r1, [r3, #24]
 8002130:	430a      	orrs	r2, r1
 8002132:	619a      	str	r2, [r3, #24]
 8002134:	e7e1      	b.n	80020fa <I2C_IsErrorOccurred+0x86>
 8002136:	f7ff fd43 	bl	8001bc0 <HAL_GetTick>
 800213a:	6823      	ldr	r3, [r4, #0]
 800213c:	1b80      	subs	r0, r0, r6
 800213e:	42b8      	cmp	r0, r7
 8002140:	d805      	bhi.n	800214e <I2C_IsErrorOccurred+0xda>
 8002142:	2f00      	cmp	r7, #0
 8002144:	d003      	beq.n	800214e <I2C_IsErrorOccurred+0xda>
 8002146:	699a      	ldr	r2, [r3, #24]
 8002148:	0692      	lsls	r2, r2, #26
 800214a:	d5aa      	bpl.n	80020a2 <I2C_IsErrorOccurred+0x2e>
 800214c:	e7af      	b.n	80020ae <I2C_IsErrorOccurred+0x3a>
 800214e:	2242      	movs	r2, #66	@ 0x42
 8002150:	6858      	ldr	r0, [r3, #4]
 8002152:	5ca2      	ldrb	r2, [r4, r2]
 8002154:	6999      	ldr	r1, [r3, #24]
 8002156:	b2d2      	uxtb	r2, r2
 8002158:	0409      	lsls	r1, r1, #16
 800215a:	d503      	bpl.n	8002164 <I2C_IsErrorOccurred+0xf0>
 800215c:	2180      	movs	r1, #128	@ 0x80
 800215e:	01c9      	lsls	r1, r1, #7
 8002160:	4208      	tst	r0, r1
 8002162:	d010      	beq.n	8002186 <I2C_IsErrorOccurred+0x112>
 8002164:	2220      	movs	r2, #32
 8002166:	4690      	mov	r8, r2
 8002168:	4641      	mov	r1, r8
 800216a:	699a      	ldr	r2, [r3, #24]
 800216c:	4211      	tst	r1, r2
 800216e:	d000      	beq.n	8002172 <I2C_IsErrorOccurred+0xfe>
 8002170:	e790      	b.n	8002094 <I2C_IsErrorOccurred+0x20>
 8002172:	f7ff fd25 	bl	8001bc0 <HAL_GetTick>
 8002176:	6823      	ldr	r3, [r4, #0]
 8002178:	1b80      	subs	r0, r0, r6
 800217a:	2819      	cmp	r0, #25
 800217c:	d9f4      	bls.n	8002168 <I2C_IsErrorOccurred+0xf4>
 800217e:	699a      	ldr	r2, [r3, #24]
 8002180:	2220      	movs	r2, #32
 8002182:	4690      	mov	r8, r2
 8002184:	e795      	b.n	80020b2 <I2C_IsErrorOccurred+0x3e>
 8002186:	2a20      	cmp	r2, #32
 8002188:	d0ec      	beq.n	8002164 <I2C_IsErrorOccurred+0xf0>
 800218a:	685a      	ldr	r2, [r3, #4]
 800218c:	4311      	orrs	r1, r2
 800218e:	6059      	str	r1, [r3, #4]
 8002190:	f7ff fd16 	bl	8001bc0 <HAL_GetTick>
 8002194:	6823      	ldr	r3, [r4, #0]
 8002196:	0006      	movs	r6, r0
 8002198:	e7e4      	b.n	8002164 <I2C_IsErrorOccurred+0xf0>
 800219a:	2200      	movs	r2, #0
 800219c:	4690      	mov	r8, r2
 800219e:	e786      	b.n	80020ae <I2C_IsErrorOccurred+0x3a>
 80021a0:	fe00e800 	.word	0xfe00e800

080021a4 <I2C_WaitOnTXISFlagUntilTimeout>:
 80021a4:	b5f8      	push	{r3, r4, r5, r6, r7, lr}
 80021a6:	0004      	movs	r4, r0
 80021a8:	000d      	movs	r5, r1
 80021aa:	0016      	movs	r6, r2
 80021ac:	2702      	movs	r7, #2
 80021ae:	6803      	ldr	r3, [r0, #0]
 80021b0:	e009      	b.n	80021c6 <I2C_WaitOnTXISFlagUntilTimeout+0x22>
 80021b2:	0032      	movs	r2, r6
 80021b4:	0029      	movs	r1, r5
 80021b6:	0020      	movs	r0, r4
 80021b8:	f7ff ff5c 	bl	8002074 <I2C_IsErrorOccurred>
 80021bc:	2800      	cmp	r0, #0
 80021be:	d11f      	bne.n	8002200 <I2C_WaitOnTXISFlagUntilTimeout+0x5c>
 80021c0:	1c6b      	adds	r3, r5, #1
 80021c2:	d105      	bne.n	80021d0 <I2C_WaitOnTXISFlagUntilTimeout+0x2c>
 80021c4:	6823      	ldr	r3, [r4, #0]
 80021c6:	699b      	ldr	r3, [r3, #24]
 80021c8:	421f      	tst	r7, r3
 80021ca:	d0f2      	beq.n	80021b2 <I2C_WaitOnTXISFlagUntilTimeout+0xe>
 80021cc:	2000      	movs	r0, #0
 80021ce:	bdf8      	pop	{r3, r4, r5, r6, r7, pc}
 80021d0:	f7ff fcf6 	bl	8001bc0 <HAL_GetTick>
 80021d4:	6823      	ldr	r3, [r4, #0]
 80021d6:	1b80      	subs	r0, r0, r6
 80021d8:	42a8      	cmp	r0, r5
 80021da:	d801      	bhi.n	80021e0 <I2C_WaitOnTXISFlagUntilTimeout+0x3c>
 80021dc:	2d00      	cmp	r5, #0
 80021de:	d1f2      	bne.n	80021c6 <I2C_WaitOnTXISFlagUntilTimeout+0x22>
 80021e0:	2102      	movs	r1, #2
 80021e2:	0008      	movs	r0, r1
 80021e4:	699a      	ldr	r2, [r3, #24]
 80021e6:	4010      	ands	r0, r2
 80021e8:	4211      	tst	r1, r2
 80021ea:	d1ec      	bne.n	80021c6 <I2C_WaitOnTXISFlagUntilTimeout+0x22>
 80021ec:	2220      	movs	r2, #32
 80021ee:	6c63      	ldr	r3, [r4, #68]	@ 0x44
 80021f0:	4313      	orrs	r3, r2
 80021f2:	6463      	str	r3, [r4, #68]	@ 0x44
 80021f4:	2341      	movs	r3, #65	@ 0x41
 80021f6:	54e2      	strb	r2, [r4, r3]
 80021f8:	3301      	adds	r3, #1
 80021fa:	54e0      	strb	r0, [r4, r3]
 80021fc:	3b02      	subs	r3, #2
 80021fe:	54e0      	strb	r0, [r4, r3]
 8002200:	2001      	movs	r0, #1
 8002202:	e7e4      	b.n	80021ce <I2C_WaitOnTXISFlagUntilTimeout+0x2a>

08002204 <I2C_WaitOnFlagUntilTimeout>:
 8002204:	b5f8      	push	{r3, r4, r5, r6, r7, lr}
 8002206:	4647      	mov	r7, r8
 8002208:	46ce      	mov	lr, r9
 800220a:	b580      	push	{r7, lr}
 800220c:	001f      	movs	r7, r3
 800220e:	9b08      	ldr	r3, [sp, #32]
 8002210:	0006      	movs	r6, r0
 8002212:	4699      	mov	r9, r3
 8002214:	000d      	movs	r5, r1
 8002216:	4690      	mov	r8, r2
 8002218:	6803      	ldr	r3, [r0, #0]
 800221a:	e009      	b.n	8002230 <I2C_WaitOnFlagUntilTimeout+0x2c>
 800221c:	464a      	mov	r2, r9
 800221e:	0039      	movs	r1, r7
 8002220:	0030      	movs	r0, r6
 8002222:	f7ff ff27 	bl	8002074 <I2C_IsErrorOccurred>
 8002226:	2800      	cmp	r0, #0
 8002228:	d129      	bne.n	800227e <I2C_WaitOnFlagUntilTimeout+0x7a>
 800222a:	1c7b      	adds	r3, r7, #1
 800222c:	d10c      	bne.n	8002248 <I2C_WaitOnFlagUntilTimeout+0x44>
 800222e:	6833      	ldr	r3, [r6, #0]
 8002230:	699c      	ldr	r4, [r3, #24]
 8002232:	402c      	ands	r4, r5
 8002234:	1b64      	subs	r4, r4, r5
 8002236:	4263      	negs	r3, r4
 8002238:	415c      	adcs	r4, r3
 800223a:	4544      	cmp	r4, r8
 800223c:	d0ee      	beq.n	800221c <I2C_WaitOnFlagUntilTimeout+0x18>
 800223e:	2000      	movs	r0, #0
 8002240:	bcc0      	pop	{r6, r7}
 8002242:	46b9      	mov	r9, r7
 8002244:	46b0      	mov	r8, r6
 8002246:	bdf8      	pop	{r3, r4, r5, r6, r7, pc}
 8002248:	f7ff fcba 	bl	8001bc0 <HAL_GetTick>
 800224c:	464b      	mov	r3, r9
 800224e:	1ac0      	subs	r0, r0, r3
 8002250:	6833      	ldr	r3, [r6, #0]
 8002252:	42b8      	cmp	r0, r7
 8002254:	d801      	bhi.n	800225a <I2C_WaitOnFlagUntilTimeout+0x56>
 8002256:	2f00      	cmp	r7, #0
 8002258:	d1ea      	bne.n	8002230 <I2C_WaitOnFlagUntilTimeout+0x2c>
 800225a:	699a      	ldr	r2, [r3, #24]
 800225c:	402a      	ands	r2, r5
 800225e:	1b52      	subs	r2, r2, r5
 8002260:	4251      	negs	r1, r2
 8002262:	414a      	adcs	r2, r1
 8002264:	4542      	cmp	r2, r8
 8002266:	d1e3      	bne.n	8002230 <I2C_WaitOnFlagUntilTimeout+0x2c>
 8002268:	2220      	movs	r2, #32
 800226a:	6c73      	ldr	r3, [r6, #68]	@ 0x44
 800226c:	4313      	orrs	r3, r2
 800226e:	6473      	str	r3, [r6, #68]	@ 0x44
 8002270:	2341      	movs	r3, #65	@ 0x41
 8002272:	54f2      	strb	r2, [r6, r3]
 8002274:	2300      	movs	r3, #0
 8002276:	3222      	adds	r2, #34	@ 0x22
 8002278:	54b3      	strb	r3, [r6, r2]
 800227a:	3a02      	subs	r2, #2
 800227c:	54b3      	strb	r3, [r6, r2]
 800227e:	2001      	movs	r0, #1
 8002280:	e7de      	b.n	8002240 <I2C_WaitOnFlagUntilTimeout+0x3c>
 8002282:	46c0      	nop			@ (mov r8, r8)

08002284 <I2C_WaitOnSTOPFlagUntilTimeout>:
 8002284:	b5f8      	push	{r3, r4, r5, r6, r7, lr}
 8002286:	6803      	ldr	r3, [r0, #0]
 8002288:	0006      	movs	r6, r0
 800228a:	699b      	ldr	r3, [r3, #24]
 800228c:	000c      	movs	r4, r1
 800228e:	0017      	movs	r7, r2
 8002290:	2520      	movs	r5, #32
 8002292:	069b      	lsls	r3, r3, #26
 8002294:	d510      	bpl.n	80022b8 <I2C_WaitOnSTOPFlagUntilTimeout+0x34>
 8002296:	e018      	b.n	80022ca <I2C_WaitOnSTOPFlagUntilTimeout+0x46>
 8002298:	f7ff fc92 	bl	8001bc0 <HAL_GetTick>
 800229c:	6833      	ldr	r3, [r6, #0]
 800229e:	1bc0      	subs	r0, r0, r7
 80022a0:	42a0      	cmp	r0, r4
 80022a2:	d801      	bhi.n	80022a8 <I2C_WaitOnSTOPFlagUntilTimeout+0x24>
 80022a4:	2c00      	cmp	r4, #0
 80022a6:	d104      	bne.n	80022b2 <I2C_WaitOnSTOPFlagUntilTimeout+0x2e>
 80022a8:	0029      	movs	r1, r5
 80022aa:	699a      	ldr	r2, [r3, #24]
 80022ac:	4011      	ands	r1, r2
 80022ae:	4215      	tst	r5, r2
 80022b0:	d00d      	beq.n	80022ce <I2C_WaitOnSTOPFlagUntilTimeout+0x4a>
 80022b2:	699b      	ldr	r3, [r3, #24]
 80022b4:	421d      	tst	r5, r3
 80022b6:	d108      	bne.n	80022ca <I2C_WaitOnSTOPFlagUntilTimeout+0x46>
 80022b8:	003a      	movs	r2, r7
 80022ba:	0021      	movs	r1, r4
 80022bc:	0030      	movs	r0, r6
 80022be:	f7ff fed9 	bl	8002074 <I2C_IsErrorOccurred>
 80022c2:	2800      	cmp	r0, #0
 80022c4:	d0e8      	beq.n	8002298 <I2C_WaitOnSTOPFlagUntilTimeout+0x14>
 80022c6:	2001      	movs	r0, #1
 80022c8:	bdf8      	pop	{r3, r4, r5, r6, r7, pc}
 80022ca:	2000      	movs	r0, #0
 80022cc:	e7fc      	b.n	80022c8 <I2C_WaitOnSTOPFlagUntilTimeout+0x44>
 80022ce:	6c73      	ldr	r3, [r6, #68]	@ 0x44
 80022d0:	432b      	orrs	r3, r5
 80022d2:	6473      	str	r3, [r6, #68]	@ 0x44
 80022d4:	2341      	movs	r3, #65	@ 0x41
 80022d6:	54f5      	strb	r5, [r6, r3]
 80022d8:	3301      	adds	r3, #1
 80022da:	54f1      	strb	r1, [r6, r3]
 80022dc:	3b02      	subs	r3, #2
 80022de:	54f1      	strb	r1, [r6, r3]
 80022e0:	e7f1      	b.n	80022c6 <I2C_WaitOnSTOPFlagUntilTimeout+0x42>
 80022e2:	46c0      	nop			@ (mov r8, r8)

080022e4 <HAL_I2C_Init>:
 80022e4:	b510      	push	{r4, lr}
 80022e6:	1e04      	subs	r4, r0, #0
 80022e8:	d052      	beq.n	8002390 <HAL_I2C_Init+0xac>
 80022ea:	2341      	movs	r3, #65	@ 0x41
 80022ec:	5cc3      	ldrb	r3, [r0, r3]
 80022ee:	b2da      	uxtb	r2, r3
 80022f0:	2b00      	cmp	r3, #0
 80022f2:	d048      	beq.n	8002386 <HAL_I2C_Init+0xa2>
 80022f4:	2341      	movs	r3, #65	@ 0x41
 80022f6:	2224      	movs	r2, #36	@ 0x24
 80022f8:	2101      	movs	r1, #1
 80022fa:	54e2      	strb	r2, [r4, r3]
 80022fc:	6823      	ldr	r3, [r4, #0]
 80022fe:	68a0      	ldr	r0, [r4, #8]
 8002300:	681a      	ldr	r2, [r3, #0]
 8002302:	438a      	bics	r2, r1
 8002304:	601a      	str	r2, [r3, #0]
 8002306:	4923      	ldr	r1, [pc, #140]	@ (8002394 <HAL_I2C_Init+0xb0>)
 8002308:	6862      	ldr	r2, [r4, #4]
 800230a:	400a      	ands	r2, r1
 800230c:	611a      	str	r2, [r3, #16]
 800230e:	689a      	ldr	r2, [r3, #8]
 8002310:	4921      	ldr	r1, [pc, #132]	@ (8002398 <HAL_I2C_Init+0xb4>)
 8002312:	400a      	ands	r2, r1
 8002314:	609a      	str	r2, [r3, #8]
 8002316:	68e2      	ldr	r2, [r4, #12]
 8002318:	2a01      	cmp	r2, #1
 800231a:	d00b      	beq.n	8002334 <HAL_I2C_Init+0x50>
 800231c:	2184      	movs	r1, #132	@ 0x84
 800231e:	0209      	lsls	r1, r1, #8
 8002320:	4301      	orrs	r1, r0
 8002322:	6099      	str	r1, [r3, #8]
 8002324:	2a02      	cmp	r2, #2
 8002326:	d109      	bne.n	800233c <HAL_I2C_Init+0x58>
 8002328:	2280      	movs	r2, #128	@ 0x80
 800232a:	6859      	ldr	r1, [r3, #4]
 800232c:	0112      	lsls	r2, r2, #4
 800232e:	430a      	orrs	r2, r1
 8002330:	605a      	str	r2, [r3, #4]
 8002332:	e007      	b.n	8002344 <HAL_I2C_Init+0x60>
 8002334:	2280      	movs	r2, #128	@ 0x80
 8002336:	0212      	lsls	r2, r2, #8
 8002338:	4302      	orrs	r2, r0
 800233a:	609a      	str	r2, [r3, #8]
 800233c:	685a      	ldr	r2, [r3, #4]
 800233e:	4917      	ldr	r1, [pc, #92]	@ (800239c <HAL_I2C_Init+0xb8>)
 8002340:	400a      	ands	r2, r1
 8002342:	605a      	str	r2, [r3, #4]
 8002344:	6859      	ldr	r1, [r3, #4]
 8002346:	4a16      	ldr	r2, [pc, #88]	@ (80023a0 <HAL_I2C_Init+0xbc>)
 8002348:	2000      	movs	r0, #0
 800234a:	430a      	orrs	r2, r1
 800234c:	605a      	str	r2, [r3, #4]
 800234e:	68da      	ldr	r2, [r3, #12]
 8002350:	4911      	ldr	r1, [pc, #68]	@ (8002398 <HAL_I2C_Init+0xb4>)
 8002352:	400a      	ands	r2, r1
 8002354:	60da      	str	r2, [r3, #12]
 8002356:	6961      	ldr	r1, [r4, #20]
 8002358:	6922      	ldr	r2, [r4, #16]
 800235a:	430a      	orrs	r2, r1
 800235c:	69a1      	ldr	r1, [r4, #24]
 800235e:	0209      	lsls	r1, r1, #8
 8002360:	430a      	orrs	r2, r1
 8002362:	60da      	str	r2, [r3, #12]
 8002364:	6a21      	ldr	r1, [r4, #32]
 8002366:	69e2      	ldr	r2, [r4, #28]
 8002368:	430a      	orrs	r2, r1
 800236a:	2101      	movs	r1, #1
 800236c:	601a      	str	r2, [r3, #0]
 800236e:	681a      	ldr	r2, [r3, #0]
 8002370:	430a      	orrs	r2, r1
 8002372:	601a      	str	r2, [r3, #0]
 8002374:	2300      	movs	r3, #0
 8002376:	2241      	movs	r2, #65	@ 0x41
 8002378:	311f      	adds	r1, #31
 800237a:	6463      	str	r3, [r4, #68]	@ 0x44
 800237c:	54a1      	strb	r1, [r4, r2]
 800237e:	3201      	adds	r2, #1
 8002380:	6323      	str	r3, [r4, #48]	@ 0x30
 8002382:	54a3      	strb	r3, [r4, r2]
 8002384:	bd10      	pop	{r4, pc}
 8002386:	3340      	adds	r3, #64	@ 0x40
 8002388:	54c2      	strb	r2, [r0, r3]
 800238a:	f7ff faeb 	bl	8001964 <HAL_I2C_MspInit>
 800238e:	e7b1      	b.n	80022f4 <HAL_I2C_Init+0x10>
 8002390:	2001      	movs	r0, #1
 8002392:	e7f7      	b.n	8002384 <HAL_I2C_Init+0xa0>
 8002394:	f0ffffff 	.word	0xf0ffffff
 8002398:	ffff7fff 	.word	0xffff7fff
 800239c:	fffff7ff 	.word	0xfffff7ff
 80023a0:	02008000 	.word	0x02008000

080023a4 <HAL_I2C_DeInit>:
 80023a4:	b570      	push	{r4, r5, r6, lr}
 80023a6:	1e04      	subs	r4, r0, #0
 80023a8:	d013      	beq.n	80023d2 <HAL_I2C_DeInit+0x2e>
 80023aa:	2541      	movs	r5, #65	@ 0x41
 80023ac:	2324      	movs	r3, #36	@ 0x24
 80023ae:	2101      	movs	r1, #1
 80023b0:	5543      	strb	r3, [r0, r5]
 80023b2:	6802      	ldr	r2, [r0, #0]
 80023b4:	6813      	ldr	r3, [r2, #0]
 80023b6:	438b      	bics	r3, r1
 80023b8:	6013      	str	r3, [r2, #0]
 80023ba:	f7ff fb1f 	bl	80019fc <HAL_I2C_MspDeInit>
 80023be:	2300      	movs	r3, #0
 80023c0:	2242      	movs	r2, #66	@ 0x42
 80023c2:	2000      	movs	r0, #0
 80023c4:	6463      	str	r3, [r4, #68]	@ 0x44
 80023c6:	5563      	strb	r3, [r4, r5]
 80023c8:	6323      	str	r3, [r4, #48]	@ 0x30
 80023ca:	54a3      	strb	r3, [r4, r2]
 80023cc:	3a02      	subs	r2, #2
 80023ce:	54a3      	strb	r3, [r4, r2]
 80023d0:	bd70      	pop	{r4, r5, r6, pc}
 80023d2:	2001      	movs	r0, #1
 80023d4:	e7fc      	b.n	80023d0 <HAL_I2C_DeInit+0x2c>
 80023d6:	46c0      	nop			@ (mov r8, r8)

080023d8 <HAL_I2C_Slave_Transmit>:
 80023d8:	b5f0      	push	{r4, r5, r6, r7, lr}
 80023da:	4646      	mov	r6, r8
 80023dc:	46d6      	mov	lr, sl
 80023de:	464f      	mov	r7, r9
 80023e0:	b5c0      	push	{r6, r7, lr}
 80023e2:	001e      	movs	r6, r3
 80023e4:	2341      	movs	r3, #65	@ 0x41
 80023e6:	4698      	mov	r8, r3
 80023e8:	5cc3      	ldrb	r3, [r0, r3]
 80023ea:	4691      	mov	r9, r2
 80023ec:	b2da      	uxtb	r2, r3
 80023ee:	0004      	movs	r4, r0
 80023f0:	000d      	movs	r5, r1
 80023f2:	4692      	mov	sl, r2
 80023f4:	b082      	sub	sp, #8
 80023f6:	2b20      	cmp	r3, #32
 80023f8:	d000      	beq.n	80023fc <HAL_I2C_Slave_Transmit+0x24>
 80023fa:	e08f      	b.n	800251c <HAL_I2C_Slave_Transmit+0x144>
 80023fc:	2900      	cmp	r1, #0
 80023fe:	d052      	beq.n	80024a6 <HAL_I2C_Slave_Transmit+0xce>
 8002400:	464b      	mov	r3, r9
 8002402:	2b00      	cmp	r3, #0
 8002404:	d04f      	beq.n	80024a6 <HAL_I2C_Slave_Transmit+0xce>
 8002406:	2340      	movs	r3, #64	@ 0x40
 8002408:	5cc2      	ldrb	r2, [r0, r3]
 800240a:	2a01      	cmp	r2, #1
 800240c:	d100      	bne.n	8002410 <HAL_I2C_Slave_Transmit+0x38>
 800240e:	e085      	b.n	800251c <HAL_I2C_Slave_Transmit+0x144>
 8002410:	2201      	movs	r2, #1
 8002412:	54c2      	strb	r2, [r0, r3]
 8002414:	f7ff fbd4 	bl	8001bc0 <HAL_GetTick>
 8002418:	2321      	movs	r3, #33	@ 0x21
 800241a:	4642      	mov	r2, r8
 800241c:	54a3      	strb	r3, [r4, r2]
 800241e:	4652      	mov	r2, sl
 8002420:	3321      	adds	r3, #33	@ 0x21
 8002422:	54e2      	strb	r2, [r4, r3]
 8002424:	2300      	movs	r3, #0
 8002426:	464a      	mov	r2, r9
 8002428:	6463      	str	r3, [r4, #68]	@ 0x44
 800242a:	8562      	strh	r2, [r4, #42]	@ 0x2a
 800242c:	6822      	ldr	r2, [r4, #0]
 800242e:	4966      	ldr	r1, [pc, #408]	@ (80025c8 <HAL_I2C_Slave_Transmit+0x1f0>)
 8002430:	6363      	str	r3, [r4, #52]	@ 0x34
 8002432:	6853      	ldr	r3, [r2, #4]
 8002434:	6265      	str	r5, [r4, #36]	@ 0x24
 8002436:	400b      	ands	r3, r1
 8002438:	6053      	str	r3, [r2, #4]
 800243a:	2380      	movs	r3, #128	@ 0x80
 800243c:	6a21      	ldr	r1, [r4, #32]
 800243e:	0007      	movs	r7, r0
 8002440:	029b      	lsls	r3, r3, #10
 8002442:	4299      	cmp	r1, r3
 8002444:	d100      	bne.n	8002448 <HAL_I2C_Slave_Transmit+0x70>
 8002446:	e070      	b.n	800252a <HAL_I2C_Slave_Transmit+0x152>
 8002448:	0033      	movs	r3, r6
 800244a:	2200      	movs	r2, #0
 800244c:	2108      	movs	r1, #8
 800244e:	0020      	movs	r0, r4
 8002450:	9700      	str	r7, [sp, #0]
 8002452:	f7ff fed7 	bl	8002204 <I2C_WaitOnFlagUntilTimeout>
 8002456:	6823      	ldr	r3, [r4, #0]
 8002458:	1e05      	subs	r5, r0, #0
 800245a:	d111      	bne.n	8002480 <HAL_I2C_Slave_Transmit+0xa8>
 800245c:	2208      	movs	r2, #8
 800245e:	61da      	str	r2, [r3, #28]
 8002460:	68e3      	ldr	r3, [r4, #12]
 8002462:	4690      	mov	r8, r2
 8002464:	4699      	mov	r9, r3
 8002466:	2b02      	cmp	r3, #2
 8002468:	d068      	beq.n	800253c <HAL_I2C_Slave_Transmit+0x164>
 800246a:	2180      	movs	r1, #128	@ 0x80
 800246c:	0033      	movs	r3, r6
 800246e:	2200      	movs	r2, #0
 8002470:	0020      	movs	r0, r4
 8002472:	9700      	str	r7, [sp, #0]
 8002474:	0249      	lsls	r1, r1, #9
 8002476:	f7ff fec5 	bl	8002204 <I2C_WaitOnFlagUntilTimeout>
 800247a:	2800      	cmp	r0, #0
 800247c:	d029      	beq.n	80024d2 <HAL_I2C_Slave_Transmit+0xfa>
 800247e:	6823      	ldr	r3, [r4, #0]
 8002480:	2280      	movs	r2, #128	@ 0x80
 8002482:	6859      	ldr	r1, [r3, #4]
 8002484:	0212      	lsls	r2, r2, #8
 8002486:	430a      	orrs	r2, r1
 8002488:	605a      	str	r2, [r3, #4]
 800248a:	699a      	ldr	r2, [r3, #24]
 800248c:	0792      	lsls	r2, r2, #30
 800248e:	d501      	bpl.n	8002494 <HAL_I2C_Slave_Transmit+0xbc>
 8002490:	2200      	movs	r2, #0
 8002492:	629a      	str	r2, [r3, #40]	@ 0x28
 8002494:	2201      	movs	r2, #1
 8002496:	6999      	ldr	r1, [r3, #24]
 8002498:	420a      	tst	r2, r1
 800249a:	d102      	bne.n	80024a2 <HAL_I2C_Slave_Transmit+0xca>
 800249c:	6999      	ldr	r1, [r3, #24]
 800249e:	430a      	orrs	r2, r1
 80024a0:	619a      	str	r2, [r3, #24]
 80024a2:	2001      	movs	r0, #1
 80024a4:	e03b      	b.n	800251e <HAL_I2C_Slave_Transmit+0x146>
 80024a6:	2380      	movs	r3, #128	@ 0x80
 80024a8:	009b      	lsls	r3, r3, #2
 80024aa:	2001      	movs	r0, #1
 80024ac:	6463      	str	r3, [r4, #68]	@ 0x44
 80024ae:	e036      	b.n	800251e <HAL_I2C_Slave_Transmit+0x146>
 80024b0:	003a      	movs	r2, r7
 80024b2:	0031      	movs	r1, r6
 80024b4:	0020      	movs	r0, r4
 80024b6:	f7ff fe75 	bl	80021a4 <I2C_WaitOnTXISFlagUntilTimeout>
 80024ba:	2800      	cmp	r0, #0
 80024bc:	d14b      	bne.n	8002556 <HAL_I2C_Slave_Transmit+0x17e>
 80024be:	6a65      	ldr	r5, [r4, #36]	@ 0x24
 80024c0:	6823      	ldr	r3, [r4, #0]
 80024c2:	782a      	ldrb	r2, [r5, #0]
 80024c4:	3501      	adds	r5, #1
 80024c6:	629a      	str	r2, [r3, #40]	@ 0x28
 80024c8:	6265      	str	r5, [r4, #36]	@ 0x24
 80024ca:	8d65      	ldrh	r5, [r4, #42]	@ 0x2a
 80024cc:	3d01      	subs	r5, #1
 80024ce:	b2ad      	uxth	r5, r5
 80024d0:	8565      	strh	r5, [r4, #42]	@ 0x2a
 80024d2:	8d63      	ldrh	r3, [r4, #42]	@ 0x2a
 80024d4:	2b00      	cmp	r3, #0
 80024d6:	d1eb      	bne.n	80024b0 <HAL_I2C_Slave_Transmit+0xd8>
 80024d8:	0033      	movs	r3, r6
 80024da:	2200      	movs	r2, #0
 80024dc:	2110      	movs	r1, #16
 80024de:	0020      	movs	r0, r4
 80024e0:	9700      	str	r7, [sp, #0]
 80024e2:	f7ff fe8f 	bl	8002204 <I2C_WaitOnFlagUntilTimeout>
 80024e6:	2800      	cmp	r0, #0
 80024e8:	d03d      	beq.n	8002566 <HAL_I2C_Slave_Transmit+0x18e>
 80024ea:	8d63      	ldrh	r3, [r4, #42]	@ 0x2a
 80024ec:	6c62      	ldr	r2, [r4, #68]	@ 0x44
 80024ee:	b29b      	uxth	r3, r3
 80024f0:	2a04      	cmp	r2, #4
 80024f2:	d130      	bne.n	8002556 <HAL_I2C_Slave_Transmit+0x17e>
 80024f4:	2b00      	cmp	r3, #0
 80024f6:	d12e      	bne.n	8002556 <HAL_I2C_Slave_Transmit+0x17e>
 80024f8:	6463      	str	r3, [r4, #68]	@ 0x44
 80024fa:	2580      	movs	r5, #128	@ 0x80
 80024fc:	022d      	lsls	r5, r5, #8
 80024fe:	0033      	movs	r3, r6
 8002500:	2201      	movs	r2, #1
 8002502:	0029      	movs	r1, r5
 8002504:	0020      	movs	r0, r4
 8002506:	9700      	str	r7, [sp, #0]
 8002508:	f7ff fe7c 	bl	8002204 <I2C_WaitOnFlagUntilTimeout>
 800250c:	2800      	cmp	r0, #0
 800250e:	d043      	beq.n	8002598 <HAL_I2C_Slave_Transmit+0x1c0>
 8002510:	6822      	ldr	r2, [r4, #0]
 8002512:	2001      	movs	r0, #1
 8002514:	6853      	ldr	r3, [r2, #4]
 8002516:	432b      	orrs	r3, r5
 8002518:	6053      	str	r3, [r2, #4]
 800251a:	e000      	b.n	800251e <HAL_I2C_Slave_Transmit+0x146>
 800251c:	2002      	movs	r0, #2
 800251e:	b002      	add	sp, #8
 8002520:	bce0      	pop	{r5, r6, r7}
 8002522:	46ba      	mov	sl, r7
 8002524:	46b1      	mov	r9, r6
 8002526:	46a8      	mov	r8, r5
 8002528:	bdf0      	pop	{r4, r5, r6, r7, pc}
 800252a:	782b      	ldrb	r3, [r5, #0]
 800252c:	3501      	adds	r5, #1
 800252e:	6293      	str	r3, [r2, #40]	@ 0x28
 8002530:	8d63      	ldrh	r3, [r4, #42]	@ 0x2a
 8002532:	6265      	str	r5, [r4, #36]	@ 0x24
 8002534:	3b01      	subs	r3, #1
 8002536:	b29b      	uxth	r3, r3
 8002538:	8563      	strh	r3, [r4, #42]	@ 0x2a
 800253a:	e785      	b.n	8002448 <HAL_I2C_Slave_Transmit+0x70>
 800253c:	0033      	movs	r3, r6
 800253e:	2200      	movs	r2, #0
 8002540:	2108      	movs	r1, #8
 8002542:	0020      	movs	r0, r4
 8002544:	9700      	str	r7, [sp, #0]
 8002546:	f7ff fe5d 	bl	8002204 <I2C_WaitOnFlagUntilTimeout>
 800254a:	6823      	ldr	r3, [r4, #0]
 800254c:	2800      	cmp	r0, #0
 800254e:	d12f      	bne.n	80025b0 <HAL_I2C_Slave_Transmit+0x1d8>
 8002550:	4642      	mov	r2, r8
 8002552:	61da      	str	r2, [r3, #28]
 8002554:	e789      	b.n	800246a <HAL_I2C_Slave_Transmit+0x92>
 8002556:	2380      	movs	r3, #128	@ 0x80
 8002558:	6822      	ldr	r2, [r4, #0]
 800255a:	021b      	lsls	r3, r3, #8
 800255c:	6851      	ldr	r1, [r2, #4]
 800255e:	2001      	movs	r0, #1
 8002560:	430b      	orrs	r3, r1
 8002562:	6053      	str	r3, [r2, #4]
 8002564:	e7db      	b.n	800251e <HAL_I2C_Slave_Transmit+0x146>
 8002566:	6823      	ldr	r3, [r4, #0]
 8002568:	699a      	ldr	r2, [r3, #24]
 800256a:	0792      	lsls	r2, r2, #30
 800256c:	d500      	bpl.n	8002570 <HAL_I2C_Slave_Transmit+0x198>
 800256e:	6298      	str	r0, [r3, #40]	@ 0x28
 8002570:	2201      	movs	r2, #1
 8002572:	6999      	ldr	r1, [r3, #24]
 8002574:	420a      	tst	r2, r1
 8002576:	d102      	bne.n	800257e <HAL_I2C_Slave_Transmit+0x1a6>
 8002578:	6999      	ldr	r1, [r3, #24]
 800257a:	430a      	orrs	r2, r1
 800257c:	619a      	str	r2, [r3, #24]
 800257e:	2210      	movs	r2, #16
 8002580:	0031      	movs	r1, r6
 8002582:	61da      	str	r2, [r3, #28]
 8002584:	0020      	movs	r0, r4
 8002586:	003a      	movs	r2, r7
 8002588:	f7ff fe7c 	bl	8002284 <I2C_WaitOnSTOPFlagUntilTimeout>
 800258c:	2800      	cmp	r0, #0
 800258e:	d1e2      	bne.n	8002556 <HAL_I2C_Slave_Transmit+0x17e>
 8002590:	2220      	movs	r2, #32
 8002592:	6823      	ldr	r3, [r4, #0]
 8002594:	61da      	str	r2, [r3, #28]
 8002596:	e7b0      	b.n	80024fa <HAL_I2C_Slave_Transmit+0x122>
 8002598:	6823      	ldr	r3, [r4, #0]
 800259a:	685a      	ldr	r2, [r3, #4]
 800259c:	4315      	orrs	r5, r2
 800259e:	605d      	str	r5, [r3, #4]
 80025a0:	2220      	movs	r2, #32
 80025a2:	2341      	movs	r3, #65	@ 0x41
 80025a4:	54e2      	strb	r2, [r4, r3]
 80025a6:	3301      	adds	r3, #1
 80025a8:	54e0      	strb	r0, [r4, r3]
 80025aa:	3b02      	subs	r3, #2
 80025ac:	54e0      	strb	r0, [r4, r3]
 80025ae:	e7b6      	b.n	800251e <HAL_I2C_Slave_Transmit+0x146>
 80025b0:	2280      	movs	r2, #128	@ 0x80
 80025b2:	6859      	ldr	r1, [r3, #4]
 80025b4:	0212      	lsls	r2, r2, #8
 80025b6:	430a      	orrs	r2, r1
 80025b8:	4649      	mov	r1, r9
 80025ba:	605a      	str	r2, [r3, #4]
 80025bc:	699a      	ldr	r2, [r3, #24]
 80025be:	4211      	tst	r1, r2
 80025c0:	d100      	bne.n	80025c4 <HAL_I2C_Slave_Transmit+0x1ec>
 80025c2:	e767      	b.n	8002494 <HAL_I2C_Slave_Transmit+0xbc>
 80025c4:	629d      	str	r5, [r3, #40]	@ 0x28
 80025c6:	e765      	b.n	8002494 <HAL_I2C_Slave_Transmit+0xbc>
 80025c8:	ffff7fff 	.word	0xffff7fff

080025cc <HAL_I2C_Slave_Receive_IT>:
 80025cc:	b5f0      	push	{r4, r5, r6, r7, lr}
 80025ce:	2441      	movs	r4, #65	@ 0x41
 80025d0:	5d03      	ldrb	r3, [r0, r4]
 80025d2:	b2de      	uxtb	r6, r3
 80025d4:	2b20      	cmp	r3, #32
 80025d6:	d11d      	bne.n	8002614 <HAL_I2C_Slave_Receive_IT+0x48>
 80025d8:	2540      	movs	r5, #64	@ 0x40
 80025da:	5d43      	ldrb	r3, [r0, r5]
 80025dc:	2b01      	cmp	r3, #1
 80025de:	d019      	beq.n	8002614 <HAL_I2C_Slave_Receive_IT+0x48>
 80025e0:	2322      	movs	r3, #34	@ 0x22
 80025e2:	5503      	strb	r3, [r0, r4]
 80025e4:	3320      	adds	r3, #32
 80025e6:	54c6      	strb	r6, [r0, r3]
 80025e8:	2600      	movs	r6, #0
 80025ea:	6803      	ldr	r3, [r0, #0]
 80025ec:	6446      	str	r6, [r0, #68]	@ 0x44
 80025ee:	685c      	ldr	r4, [r3, #4]
 80025f0:	4f09      	ldr	r7, [pc, #36]	@ (8002618 <HAL_I2C_Slave_Receive_IT+0x4c>)
 80025f2:	403c      	ands	r4, r7
 80025f4:	605c      	str	r4, [r3, #4]
 80025f6:	6241      	str	r1, [r0, #36]	@ 0x24
 80025f8:	21fc      	movs	r1, #252	@ 0xfc
 80025fa:	8542      	strh	r2, [r0, #42]	@ 0x2a
 80025fc:	8d42      	ldrh	r2, [r0, #42]	@ 0x2a
 80025fe:	8502      	strh	r2, [r0, #40]	@ 0x28
 8002600:	4a06      	ldr	r2, [pc, #24]	@ (800261c <HAL_I2C_Slave_Receive_IT+0x50>)
 8002602:	62c2      	str	r2, [r0, #44]	@ 0x2c
 8002604:	4a06      	ldr	r2, [pc, #24]	@ (8002620 <HAL_I2C_Slave_Receive_IT+0x54>)
 8002606:	6342      	str	r2, [r0, #52]	@ 0x34
 8002608:	5546      	strb	r6, [r0, r5]
 800260a:	681a      	ldr	r2, [r3, #0]
 800260c:	2000      	movs	r0, #0
 800260e:	430a      	orrs	r2, r1
 8002610:	601a      	str	r2, [r3, #0]
 8002612:	e000      	b.n	8002616 <HAL_I2C_Slave_Receive_IT+0x4a>
 8002614:	2002      	movs	r0, #2
 8002616:	bdf0      	pop	{r4, r5, r6, r7, pc}
 8002618:	ffff7fff 	.word	0xffff7fff
 800261c:	ffff0000 	.word	0xffff0000
 8002620:	08002bf1 	.word	0x08002bf1

08002624 <HAL_I2C_EV_IRQHandler>:
 8002624:	6803      	ldr	r3, [r0, #0]
 8002626:	b510      	push	{r4, lr}
 8002628:	6999      	ldr	r1, [r3, #24]
 800262a:	681a      	ldr	r2, [r3, #0]
 800262c:	6b43      	ldr	r3, [r0, #52]	@ 0x34
 800262e:	2b00      	cmp	r3, #0
 8002630:	d000      	beq.n	8002634 <HAL_I2C_EV_IRQHandler+0x10>
 8002632:	4798      	blx	r3
 8002634:	bd10      	pop	{r4, pc}
 8002636:	46c0      	nop			@ (mov r8, r8)

08002638 <HAL_I2C_SlaveTxCpltCallback>:
 8002638:	4770      	bx	lr
 800263a:	46c0      	nop			@ (mov r8, r8)

0800263c <I2C_ITSlaveSeqCplt>:
 800263c:	b510      	push	{r4, lr}
 800263e:	2142      	movs	r1, #66	@ 0x42
 8002640:	2400      	movs	r4, #0
 8002642:	6802      	ldr	r2, [r0, #0]
 8002644:	6813      	ldr	r3, [r2, #0]
 8002646:	5444      	strb	r4, [r0, r1]
 8002648:	0459      	lsls	r1, r3, #17
 800264a:	d50b      	bpl.n	8002664 <I2C_ITSlaveSeqCplt+0x28>
 800264c:	6813      	ldr	r3, [r2, #0]
 800264e:	4920      	ldr	r1, [pc, #128]	@ (80026d0 <I2C_ITSlaveSeqCplt+0x94>)
 8002650:	400b      	ands	r3, r1
 8002652:	6013      	str	r3, [r2, #0]
 8002654:	2141      	movs	r1, #65	@ 0x41
 8002656:	5c43      	ldrb	r3, [r0, r1]
 8002658:	2b29      	cmp	r3, #41	@ 0x29
 800265a:	d00d      	beq.n	8002678 <I2C_ITSlaveSeqCplt+0x3c>
 800265c:	5c43      	ldrb	r3, [r0, r1]
 800265e:	2b2a      	cmp	r3, #42	@ 0x2a
 8002660:	d020      	beq.n	80026a4 <I2C_ITSlaveSeqCplt+0x68>
 8002662:	bd10      	pop	{r4, pc}
 8002664:	041b      	lsls	r3, r3, #16
 8002666:	d5f5      	bpl.n	8002654 <I2C_ITSlaveSeqCplt+0x18>
 8002668:	6813      	ldr	r3, [r2, #0]
 800266a:	491a      	ldr	r1, [pc, #104]	@ (80026d4 <I2C_ITSlaveSeqCplt+0x98>)
 800266c:	400b      	ands	r3, r1
 800266e:	2141      	movs	r1, #65	@ 0x41
 8002670:	6013      	str	r3, [r2, #0]
 8002672:	5c43      	ldrb	r3, [r0, r1]
 8002674:	2b29      	cmp	r3, #41	@ 0x29
 8002676:	d1f1      	bne.n	800265c <I2C_ITSlaveSeqCplt+0x20>
 8002678:	2421      	movs	r4, #33	@ 0x21
 800267a:	3b01      	subs	r3, #1
 800267c:	5443      	strb	r3, [r0, r1]
 800267e:	6304      	str	r4, [r0, #48]	@ 0x30
 8002680:	5c41      	ldrb	r1, [r0, r1]
 8002682:	400b      	ands	r3, r1
 8002684:	3b28      	subs	r3, #40	@ 0x28
 8002686:	1e59      	subs	r1, r3, #1
 8002688:	418b      	sbcs	r3, r1
 800268a:	21af      	movs	r1, #175	@ 0xaf
 800268c:	425b      	negs	r3, r3
 800268e:	438b      	bics	r3, r1
 8002690:	6811      	ldr	r1, [r2, #0]
 8002692:	3b43      	subs	r3, #67	@ 0x43
 8002694:	400b      	ands	r3, r1
 8002696:	6013      	str	r3, [r2, #0]
 8002698:	2340      	movs	r3, #64	@ 0x40
 800269a:	2200      	movs	r2, #0
 800269c:	54c2      	strb	r2, [r0, r3]
 800269e:	f7ff ffcb 	bl	8002638 <HAL_I2C_SlaveTxCpltCallback>
 80026a2:	e7de      	b.n	8002662 <I2C_ITSlaveSeqCplt+0x26>
 80026a4:	2422      	movs	r4, #34	@ 0x22
 80026a6:	3b02      	subs	r3, #2
 80026a8:	5443      	strb	r3, [r0, r1]
 80026aa:	6304      	str	r4, [r0, #48]	@ 0x30
 80026ac:	5c41      	ldrb	r1, [r0, r1]
 80026ae:	400b      	ands	r3, r1
 80026b0:	3b28      	subs	r3, #40	@ 0x28
 80026b2:	1e59      	subs	r1, r3, #1
 80026b4:	418b      	sbcs	r3, r1
 80026b6:	21af      	movs	r1, #175	@ 0xaf
 80026b8:	425b      	negs	r3, r3
 80026ba:	438b      	bics	r3, r1
 80026bc:	6811      	ldr	r1, [r2, #0]
 80026be:	3b45      	subs	r3, #69	@ 0x45
 80026c0:	400b      	ands	r3, r1
 80026c2:	6013      	str	r3, [r2, #0]
 80026c4:	2340      	movs	r3, #64	@ 0x40
 80026c6:	2200      	movs	r2, #0
 80026c8:	54c2      	strb	r2, [r0, r3]
 80026ca:	f7fe fefb 	bl	80014c4 <HAL_I2C_SlaveRxCpltCallback>
 80026ce:	e7c8      	b.n	8002662 <I2C_ITSlaveSeqCplt+0x26>
 80026d0:	ffffbfff 	.word	0xffffbfff
 80026d4:	ffff7fff 	.word	0xffff7fff

080026d8 <HAL_I2C_AddrCallback>:
 80026d8:	4770      	bx	lr
 80026da:	46c0      	nop			@ (mov r8, r8)

080026dc <I2C_ITAddrCplt.part.0.constprop.0>:
 80026dc:	b5f0      	push	{r4, r5, r6, r7, lr}
 80026de:	46c6      	mov	lr, r8
 80026e0:	25fe      	movs	r5, #254	@ 0xfe
 80026e2:	6803      	ldr	r3, [r0, #0]
 80026e4:	68c6      	ldr	r6, [r0, #12]
 80026e6:	6999      	ldr	r1, [r3, #24]
 80026e8:	699a      	ldr	r2, [r3, #24]
 80026ea:	03c9      	lsls	r1, r1, #15
 80026ec:	0c12      	lsrs	r2, r2, #16
 80026ee:	689c      	ldr	r4, [r3, #8]
 80026f0:	b500      	push	{lr}
 80026f2:	68df      	ldr	r7, [r3, #12]
 80026f4:	0fc9      	lsrs	r1, r1, #31
 80026f6:	402a      	ands	r2, r5
 80026f8:	2e02      	cmp	r6, #2
 80026fa:	d113      	bne.n	8002724 <I2C_ITAddrCplt.part.0.constprop.0+0x48>
 80026fc:	05a4      	lsls	r4, r4, #22
 80026fe:	0da6      	lsrs	r6, r4, #22
 8002700:	46b4      	mov	ip, r6
 8002702:	2606      	movs	r6, #6
 8002704:	0f64      	lsrs	r4, r4, #29
 8002706:	4054      	eors	r4, r2
 8002708:	0032      	movs	r2, r6
 800270a:	4022      	ands	r2, r4
 800270c:	4690      	mov	r8, r2
 800270e:	4226      	tst	r6, r4
 8002710:	d112      	bne.n	8002738 <I2C_ITAddrCplt.part.0.constprop.0+0x5c>
 8002712:	6c84      	ldr	r4, [r0, #72]	@ 0x48
 8002714:	3401      	adds	r4, #1
 8002716:	6484      	str	r4, [r0, #72]	@ 0x48
 8002718:	6c82      	ldr	r2, [r0, #72]	@ 0x48
 800271a:	2a02      	cmp	r2, #2
 800271c:	d018      	beq.n	8002750 <I2C_ITAddrCplt.part.0.constprop.0+0x74>
 800271e:	bc80      	pop	{r7}
 8002720:	46b8      	mov	r8, r7
 8002722:	bdf0      	pop	{r4, r5, r6, r7, pc}
 8002724:	25b8      	movs	r5, #184	@ 0xb8
 8002726:	681c      	ldr	r4, [r3, #0]
 8002728:	43ac      	bics	r4, r5
 800272a:	601c      	str	r4, [r3, #0]
 800272c:	2340      	movs	r3, #64	@ 0x40
 800272e:	2400      	movs	r4, #0
 8002730:	54c4      	strb	r4, [r0, r3]
 8002732:	f7ff ffd1 	bl	80026d8 <HAL_I2C_AddrCallback>
 8002736:	e7f2      	b.n	800271e <I2C_ITAddrCplt.part.0.constprop.0+0x42>
 8002738:	24b8      	movs	r4, #184	@ 0xb8
 800273a:	681a      	ldr	r2, [r3, #0]
 800273c:	43a2      	bics	r2, r4
 800273e:	601a      	str	r2, [r3, #0]
 8002740:	2340      	movs	r3, #64	@ 0x40
 8002742:	2200      	movs	r2, #0
 8002744:	54c2      	strb	r2, [r0, r3]
 8002746:	002a      	movs	r2, r5
 8002748:	403a      	ands	r2, r7
 800274a:	f7ff ffc5 	bl	80026d8 <HAL_I2C_AddrCallback>
 800274e:	e7e6      	b.n	800271e <I2C_ITAddrCplt.part.0.constprop.0+0x42>
 8002750:	4642      	mov	r2, r8
 8002752:	6482      	str	r2, [r0, #72]	@ 0x48
 8002754:	2208      	movs	r2, #8
 8002756:	61da      	str	r2, [r3, #28]
 8002758:	4642      	mov	r2, r8
 800275a:	2340      	movs	r3, #64	@ 0x40
 800275c:	54c2      	strb	r2, [r0, r3]
 800275e:	4662      	mov	r2, ip
 8002760:	f7ff ffba 	bl	80026d8 <HAL_I2C_AddrCallback>
 8002764:	e7db      	b.n	800271e <I2C_ITAddrCplt.part.0.constprop.0+0x42>
 8002766:	46c0      	nop			@ (mov r8, r8)

08002768 <HAL_I2C_ListenCpltCallback>:
 8002768:	4770      	bx	lr
 800276a:	46c0      	nop			@ (mov r8, r8)

0800276c <I2C_ITListenCplt>:
 800276c:	4b18      	ldr	r3, [pc, #96]	@ (80027d0 <I2C_ITListenCplt+0x64>)
 800276e:	b510      	push	{r4, lr}
 8002770:	2241      	movs	r2, #65	@ 0x41
 8002772:	62c3      	str	r3, [r0, #44]	@ 0x2c
 8002774:	2420      	movs	r4, #32
 8002776:	2300      	movs	r3, #0
 8002778:	6303      	str	r3, [r0, #48]	@ 0x30
 800277a:	5484      	strb	r4, [r0, r2]
 800277c:	3201      	adds	r2, #1
 800277e:	5483      	strb	r3, [r0, r2]
 8002780:	3a3e      	subs	r2, #62	@ 0x3e
 8002782:	6343      	str	r3, [r0, #52]	@ 0x34
 8002784:	6803      	ldr	r3, [r0, #0]
 8002786:	420a      	tst	r2, r1
 8002788:	d009      	beq.n	800279e <I2C_ITListenCplt+0x32>
 800278a:	6a59      	ldr	r1, [r3, #36]	@ 0x24
 800278c:	6a43      	ldr	r3, [r0, #36]	@ 0x24
 800278e:	7019      	strb	r1, [r3, #0]
 8002790:	6a43      	ldr	r3, [r0, #36]	@ 0x24
 8002792:	3301      	adds	r3, #1
 8002794:	6243      	str	r3, [r0, #36]	@ 0x24
 8002796:	8d03      	ldrh	r3, [r0, #40]	@ 0x28
 8002798:	2b00      	cmp	r3, #0
 800279a:	d10f      	bne.n	80027bc <I2C_ITListenCplt+0x50>
 800279c:	6803      	ldr	r3, [r0, #0]
 800279e:	2241      	movs	r2, #65	@ 0x41
 80027a0:	5c81      	ldrb	r1, [r0, r2]
 80027a2:	21fe      	movs	r1, #254	@ 0xfe
 80027a4:	5c82      	ldrb	r2, [r0, r2]
 80027a6:	681a      	ldr	r2, [r3, #0]
 80027a8:	438a      	bics	r2, r1
 80027aa:	601a      	str	r2, [r3, #0]
 80027ac:	2210      	movs	r2, #16
 80027ae:	61da      	str	r2, [r3, #28]
 80027b0:	2340      	movs	r3, #64	@ 0x40
 80027b2:	2200      	movs	r2, #0
 80027b4:	54c2      	strb	r2, [r0, r3]
 80027b6:	f7ff ffd7 	bl	8002768 <HAL_I2C_ListenCpltCallback>
 80027ba:	bd10      	pop	{r4, pc}
 80027bc:	3b01      	subs	r3, #1
 80027be:	8503      	strh	r3, [r0, #40]	@ 0x28
 80027c0:	8d43      	ldrh	r3, [r0, #42]	@ 0x2a
 80027c2:	3b01      	subs	r3, #1
 80027c4:	b29b      	uxth	r3, r3
 80027c6:	8543      	strh	r3, [r0, #42]	@ 0x2a
 80027c8:	6c43      	ldr	r3, [r0, #68]	@ 0x44
 80027ca:	4313      	orrs	r3, r2
 80027cc:	6443      	str	r3, [r0, #68]	@ 0x44
 80027ce:	e7e5      	b.n	800279c <I2C_ITListenCplt+0x30>
 80027d0:	ffff0000 	.word	0xffff0000

080027d4 <HAL_I2C_AbortCpltCallback>:
 80027d4:	4770      	bx	lr
 80027d6:	46c0      	nop			@ (mov r8, r8)

080027d8 <I2C_DMAAbort>:
 80027d8:	6a80      	ldr	r0, [r0, #40]	@ 0x28
 80027da:	b510      	push	{r4, lr}
 80027dc:	6b83      	ldr	r3, [r0, #56]	@ 0x38
 80027de:	2b00      	cmp	r3, #0
 80027e0:	d001      	beq.n	80027e6 <I2C_DMAAbort+0xe>
 80027e2:	2200      	movs	r2, #0
 80027e4:	639a      	str	r2, [r3, #56]	@ 0x38
 80027e6:	6bc3      	ldr	r3, [r0, #60]	@ 0x3c
 80027e8:	2b00      	cmp	r3, #0
 80027ea:	d001      	beq.n	80027f0 <I2C_DMAAbort+0x18>
 80027ec:	2200      	movs	r2, #0
 80027ee:	639a      	str	r2, [r3, #56]	@ 0x38
 80027f0:	2341      	movs	r3, #65	@ 0x41
 80027f2:	5cc2      	ldrb	r2, [r0, r3]
 80027f4:	2a60      	cmp	r2, #96	@ 0x60
 80027f6:	d006      	beq.n	8002806 <I2C_DMAAbort+0x2e>
 80027f8:	2300      	movs	r3, #0
 80027fa:	2240      	movs	r2, #64	@ 0x40
 80027fc:	6303      	str	r3, [r0, #48]	@ 0x30
 80027fe:	5483      	strb	r3, [r0, r2]
 8002800:	f7fe fe78 	bl	80014f4 <HAL_I2C_ErrorCallback>
 8002804:	bd10      	pop	{r4, pc}
 8002806:	3a40      	subs	r2, #64	@ 0x40
 8002808:	54c2      	strb	r2, [r0, r3]
 800280a:	2300      	movs	r3, #0
 800280c:	3220      	adds	r2, #32
 800280e:	6303      	str	r3, [r0, #48]	@ 0x30
 8002810:	5483      	strb	r3, [r0, r2]
 8002812:	f7ff ffdf 	bl	80027d4 <HAL_I2C_AbortCpltCallback>
 8002816:	e7f5      	b.n	8002804 <I2C_DMAAbort+0x2c>

08002818 <I2C_ITError>:
 8002818:	b570      	push	{r4, r5, r6, lr}
 800281a:	2342      	movs	r3, #66	@ 0x42
 800281c:	0004      	movs	r4, r0
 800281e:	2500      	movs	r5, #0
 8002820:	2041      	movs	r0, #65	@ 0x41
 8002822:	5c22      	ldrb	r2, [r4, r0]
 8002824:	54e5      	strb	r5, [r4, r3]
 8002826:	4b51      	ldr	r3, [pc, #324]	@ (800296c <I2C_ITError+0x154>)
 8002828:	3a28      	subs	r2, #40	@ 0x28
 800282a:	62e3      	str	r3, [r4, #44]	@ 0x2c
 800282c:	8565      	strh	r5, [r4, #42]	@ 0x2a
 800282e:	6c63      	ldr	r3, [r4, #68]	@ 0x44
 8002830:	430b      	orrs	r3, r1
 8002832:	6463      	str	r3, [r4, #68]	@ 0x44
 8002834:	6823      	ldr	r3, [r4, #0]
 8002836:	2a02      	cmp	r2, #2
 8002838:	d834      	bhi.n	80028a4 <I2C_ITError+0x8c>
 800283a:	5c21      	ldrb	r1, [r4, r0]
 800283c:	3528      	adds	r5, #40	@ 0x28
 800283e:	4029      	ands	r1, r5
 8002840:	3928      	subs	r1, #40	@ 0x28
 8002842:	1e4a      	subs	r2, r1, #1
 8002844:	4191      	sbcs	r1, r2
 8002846:	22b0      	movs	r2, #176	@ 0xb0
 8002848:	4249      	negs	r1, r1
 800284a:	400a      	ands	r2, r1
 800284c:	5c21      	ldrb	r1, [r4, r0]
 800284e:	3246      	adds	r2, #70	@ 0x46
 8002850:	43d2      	mvns	r2, r2
 8002852:	400d      	ands	r5, r1
 8002854:	2d28      	cmp	r5, #40	@ 0x28
 8002856:	d001      	beq.n	800285c <I2C_ITError+0x44>
 8002858:	22f7      	movs	r2, #247	@ 0xf7
 800285a:	4252      	negs	r2, r2
 800285c:	6819      	ldr	r1, [r3, #0]
 800285e:	400a      	ands	r2, r1
 8002860:	601a      	str	r2, [r3, #0]
 8002862:	2128      	movs	r1, #40	@ 0x28
 8002864:	2241      	movs	r2, #65	@ 0x41
 8002866:	54a1      	strb	r1, [r4, r2]
 8002868:	4a41      	ldr	r2, [pc, #260]	@ (8002970 <I2C_ITError+0x158>)
 800286a:	6ba0      	ldr	r0, [r4, #56]	@ 0x38
 800286c:	6362      	str	r2, [r4, #52]	@ 0x34
 800286e:	6b22      	ldr	r2, [r4, #48]	@ 0x30
 8002870:	2800      	cmp	r0, #0
 8002872:	d004      	beq.n	800287e <I2C_ITError+0x66>
 8002874:	0011      	movs	r1, r2
 8002876:	2510      	movs	r5, #16
 8002878:	3911      	subs	r1, #17
 800287a:	43a9      	bics	r1, r5
 800287c:	d039      	beq.n	80028f2 <I2C_ITError+0xda>
 800287e:	6be0      	ldr	r0, [r4, #60]	@ 0x3c
 8002880:	2800      	cmp	r0, #0
 8002882:	d003      	beq.n	800288c <I2C_ITError+0x74>
 8002884:	2110      	movs	r1, #16
 8002886:	3a12      	subs	r2, #18
 8002888:	438a      	bics	r2, r1
 800288a:	d047      	beq.n	800291c <I2C_ITError+0x104>
 800288c:	2341      	movs	r3, #65	@ 0x41
 800288e:	5ce2      	ldrb	r2, [r4, r3]
 8002890:	2a60      	cmp	r2, #96	@ 0x60
 8002892:	d061      	beq.n	8002958 <I2C_ITError+0x140>
 8002894:	2300      	movs	r3, #0
 8002896:	2240      	movs	r2, #64	@ 0x40
 8002898:	6323      	str	r3, [r4, #48]	@ 0x30
 800289a:	0020      	movs	r0, r4
 800289c:	54a3      	strb	r3, [r4, r2]
 800289e:	f7fe fe29 	bl	80014f4 <HAL_I2C_ErrorCallback>
 80028a2:	bd70      	pop	{r4, r5, r6, pc}
 80028a4:	21fe      	movs	r1, #254	@ 0xfe
 80028a6:	5c22      	ldrb	r2, [r4, r0]
 80028a8:	5c22      	ldrb	r2, [r4, r0]
 80028aa:	681a      	ldr	r2, [r3, #0]
 80028ac:	438a      	bics	r2, r1
 80028ae:	601a      	str	r2, [r3, #0]
 80028b0:	699a      	ldr	r2, [r3, #24]
 80028b2:	0792      	lsls	r2, r2, #30
 80028b4:	d500      	bpl.n	80028b8 <I2C_ITError+0xa0>
 80028b6:	629d      	str	r5, [r3, #40]	@ 0x28
 80028b8:	2201      	movs	r2, #1
 80028ba:	6999      	ldr	r1, [r3, #24]
 80028bc:	420a      	tst	r2, r1
 80028be:	d102      	bne.n	80028c6 <I2C_ITError+0xae>
 80028c0:	6999      	ldr	r1, [r3, #24]
 80028c2:	430a      	orrs	r2, r1
 80028c4:	619a      	str	r2, [r3, #24]
 80028c6:	2241      	movs	r2, #65	@ 0x41
 80028c8:	5ca1      	ldrb	r1, [r4, r2]
 80028ca:	2960      	cmp	r1, #96	@ 0x60
 80028cc:	d00f      	beq.n	80028ee <I2C_ITError+0xd6>
 80028ce:	2120      	movs	r1, #32
 80028d0:	54a1      	strb	r1, [r4, r2]
 80028d2:	699a      	ldr	r2, [r3, #24]
 80028d4:	4211      	tst	r1, r2
 80028d6:	d00a      	beq.n	80028ee <I2C_ITError+0xd6>
 80028d8:	2210      	movs	r2, #16
 80028da:	6999      	ldr	r1, [r3, #24]
 80028dc:	420a      	tst	r2, r1
 80028de:	d004      	beq.n	80028ea <I2C_ITError+0xd2>
 80028e0:	2104      	movs	r1, #4
 80028e2:	61da      	str	r2, [r3, #28]
 80028e4:	6c62      	ldr	r2, [r4, #68]	@ 0x44
 80028e6:	430a      	orrs	r2, r1
 80028e8:	6462      	str	r2, [r4, #68]	@ 0x44
 80028ea:	2220      	movs	r2, #32
 80028ec:	61da      	str	r2, [r3, #28]
 80028ee:	2200      	movs	r2, #0
 80028f0:	e7bb      	b.n	800286a <I2C_ITError+0x52>
 80028f2:	681a      	ldr	r2, [r3, #0]
 80028f4:	0452      	lsls	r2, r2, #17
 80028f6:	d42a      	bmi.n	800294e <I2C_ITError+0x136>
 80028f8:	f7ff fa32 	bl	8001d60 <HAL_DMA_GetState>
 80028fc:	2801      	cmp	r0, #1
 80028fe:	d0c5      	beq.n	800288c <I2C_ITError+0x74>
 8002900:	6ba0      	ldr	r0, [r4, #56]	@ 0x38
 8002902:	4b1c      	ldr	r3, [pc, #112]	@ (8002974 <I2C_ITError+0x15c>)
 8002904:	2200      	movs	r2, #0
 8002906:	6383      	str	r3, [r0, #56]	@ 0x38
 8002908:	2340      	movs	r3, #64	@ 0x40
 800290a:	54e2      	strb	r2, [r4, r3]
 800290c:	f7ff f9ea 	bl	8001ce4 <HAL_DMA_Abort_IT>
 8002910:	2800      	cmp	r0, #0
 8002912:	d0c6      	beq.n	80028a2 <I2C_ITError+0x8a>
 8002914:	6ba0      	ldr	r0, [r4, #56]	@ 0x38
 8002916:	6b83      	ldr	r3, [r0, #56]	@ 0x38
 8002918:	4798      	blx	r3
 800291a:	e7c2      	b.n	80028a2 <I2C_ITError+0x8a>
 800291c:	681a      	ldr	r2, [r3, #0]
 800291e:	0412      	lsls	r2, r2, #16
 8002920:	d503      	bpl.n	800292a <I2C_ITError+0x112>
 8002922:	681a      	ldr	r2, [r3, #0]
 8002924:	4914      	ldr	r1, [pc, #80]	@ (8002978 <I2C_ITError+0x160>)
 8002926:	400a      	ands	r2, r1
 8002928:	601a      	str	r2, [r3, #0]
 800292a:	f7ff fa19 	bl	8001d60 <HAL_DMA_GetState>
 800292e:	2801      	cmp	r0, #1
 8002930:	d0ac      	beq.n	800288c <I2C_ITError+0x74>
 8002932:	6be0      	ldr	r0, [r4, #60]	@ 0x3c
 8002934:	4b0f      	ldr	r3, [pc, #60]	@ (8002974 <I2C_ITError+0x15c>)
 8002936:	2200      	movs	r2, #0
 8002938:	6383      	str	r3, [r0, #56]	@ 0x38
 800293a:	2340      	movs	r3, #64	@ 0x40
 800293c:	54e2      	strb	r2, [r4, r3]
 800293e:	f7ff f9d1 	bl	8001ce4 <HAL_DMA_Abort_IT>
 8002942:	2800      	cmp	r0, #0
 8002944:	d0ad      	beq.n	80028a2 <I2C_ITError+0x8a>
 8002946:	6be0      	ldr	r0, [r4, #60]	@ 0x3c
 8002948:	6b83      	ldr	r3, [r0, #56]	@ 0x38
 800294a:	4798      	blx	r3
 800294c:	e7a9      	b.n	80028a2 <I2C_ITError+0x8a>
 800294e:	681a      	ldr	r2, [r3, #0]
 8002950:	490a      	ldr	r1, [pc, #40]	@ (800297c <I2C_ITError+0x164>)
 8002952:	400a      	ands	r2, r1
 8002954:	601a      	str	r2, [r3, #0]
 8002956:	e7cf      	b.n	80028f8 <I2C_ITError+0xe0>
 8002958:	3a40      	subs	r2, #64	@ 0x40
 800295a:	54e2      	strb	r2, [r4, r3]
 800295c:	2300      	movs	r3, #0
 800295e:	3220      	adds	r2, #32
 8002960:	6323      	str	r3, [r4, #48]	@ 0x30
 8002962:	0020      	movs	r0, r4
 8002964:	54a3      	strb	r3, [r4, r2]
 8002966:	f7ff ff35 	bl	80027d4 <HAL_I2C_AbortCpltCallback>
 800296a:	e79a      	b.n	80028a2 <I2C_ITError+0x8a>
 800296c:	ffff0000 	.word	0xffff0000
 8002970:	08002bf1 	.word	0x08002bf1
 8002974:	080027d9 	.word	0x080027d9
 8002978:	ffff7fff 	.word	0xffff7fff
 800297c:	ffffbfff 	.word	0xffffbfff

08002980 <HAL_I2C_ER_IRQHandler>:
 8002980:	b570      	push	{r4, r5, r6, lr}
 8002982:	2480      	movs	r4, #128	@ 0x80
 8002984:	6802      	ldr	r2, [r0, #0]
 8002986:	0064      	lsls	r4, r4, #1
 8002988:	6993      	ldr	r3, [r2, #24]
 800298a:	6811      	ldr	r1, [r2, #0]
 800298c:	4223      	tst	r3, r4
 800298e:	d024      	beq.n	80029da <HAL_I2C_ER_IRQHandler+0x5a>
 8002990:	0609      	lsls	r1, r1, #24
 8002992:	d404      	bmi.n	800299e <HAL_I2C_ER_IRQHandler+0x1e>
 8002994:	230b      	movs	r3, #11
 8002996:	6c41      	ldr	r1, [r0, #68]	@ 0x44
 8002998:	420b      	tst	r3, r1
 800299a:	d11b      	bne.n	80029d4 <HAL_I2C_ER_IRQHandler+0x54>
 800299c:	bd70      	pop	{r4, r5, r6, pc}
 800299e:	2501      	movs	r5, #1
 80029a0:	6c41      	ldr	r1, [r0, #68]	@ 0x44
 80029a2:	4329      	orrs	r1, r5
 80029a4:	6441      	str	r1, [r0, #68]	@ 0x44
 80029a6:	61d4      	str	r4, [r2, #28]
 80029a8:	0559      	lsls	r1, r3, #21
 80029aa:	d520      	bpl.n	80029ee <HAL_I2C_ER_IRQHandler+0x6e>
 80029ac:	2408      	movs	r4, #8
 80029ae:	6c41      	ldr	r1, [r0, #68]	@ 0x44
 80029b0:	4321      	orrs	r1, r4
 80029b2:	6441      	str	r1, [r0, #68]	@ 0x44
 80029b4:	2180      	movs	r1, #128	@ 0x80
 80029b6:	00c9      	lsls	r1, r1, #3
 80029b8:	61d1      	str	r1, [r2, #28]
 80029ba:	059b      	lsls	r3, r3, #22
 80029bc:	d5ea      	bpl.n	8002994 <HAL_I2C_ER_IRQHandler+0x14>
 80029be:	2102      	movs	r1, #2
 80029c0:	6c43      	ldr	r3, [r0, #68]	@ 0x44
 80029c2:	430b      	orrs	r3, r1
 80029c4:	6443      	str	r3, [r0, #68]	@ 0x44
 80029c6:	2380      	movs	r3, #128	@ 0x80
 80029c8:	009b      	lsls	r3, r3, #2
 80029ca:	61d3      	str	r3, [r2, #28]
 80029cc:	230b      	movs	r3, #11
 80029ce:	6c41      	ldr	r1, [r0, #68]	@ 0x44
 80029d0:	420b      	tst	r3, r1
 80029d2:	d0e3      	beq.n	800299c <HAL_I2C_ER_IRQHandler+0x1c>
 80029d4:	f7ff ff20 	bl	8002818 <I2C_ITError>
 80029d8:	e7e0      	b.n	800299c <HAL_I2C_ER_IRQHandler+0x1c>
 80029da:	055c      	lsls	r4, r3, #21
 80029dc:	d502      	bpl.n	80029e4 <HAL_I2C_ER_IRQHandler+0x64>
 80029de:	0609      	lsls	r1, r1, #24
 80029e0:	d4e4      	bmi.n	80029ac <HAL_I2C_ER_IRQHandler+0x2c>
 80029e2:	e7d7      	b.n	8002994 <HAL_I2C_ER_IRQHandler+0x14>
 80029e4:	059b      	lsls	r3, r3, #22
 80029e6:	d5d5      	bpl.n	8002994 <HAL_I2C_ER_IRQHandler+0x14>
 80029e8:	0609      	lsls	r1, r1, #24
 80029ea:	d4e8      	bmi.n	80029be <HAL_I2C_ER_IRQHandler+0x3e>
 80029ec:	e7d2      	b.n	8002994 <HAL_I2C_ER_IRQHandler+0x14>
 80029ee:	059b      	lsls	r3, r3, #22
 80029f0:	d4e5      	bmi.n	80029be <HAL_I2C_ER_IRQHandler+0x3e>
 80029f2:	e7cf      	b.n	8002994 <HAL_I2C_ER_IRQHandler+0x14>

080029f4 <I2C_ITSlaveCplt.constprop.0>:
 80029f4:	b570      	push	{r4, r5, r6, lr}
 80029f6:	2241      	movs	r2, #65	@ 0x41
 80029f8:	0004      	movs	r4, r0
 80029fa:	2620      	movs	r6, #32
 80029fc:	6803      	ldr	r3, [r0, #0]
 80029fe:	000d      	movs	r5, r1
 8002a00:	6819      	ldr	r1, [r3, #0]
 8002a02:	6ac0      	ldr	r0, [r0, #44]	@ 0x2c
 8002a04:	5ca2      	ldrb	r2, [r4, r2]
 8002a06:	61de      	str	r6, [r3, #28]
 8002a08:	3a21      	subs	r2, #33	@ 0x21
 8002a0a:	b2d2      	uxtb	r2, r2
 8002a0c:	2a09      	cmp	r2, #9
 8002a0e:	d80b      	bhi.n	8002a28 <I2C_ITSlaveCplt.constprop.0+0x34>
 8002a10:	4e71      	ldr	r6, [pc, #452]	@ (8002bd8 <I2C_ITSlaveCplt.constprop.0+0x1e4>)
 8002a12:	0092      	lsls	r2, r2, #2
 8002a14:	58b2      	ldr	r2, [r6, r2]
 8002a16:	4697      	mov	pc, r2
 8002a18:	2241      	movs	r2, #65	@ 0x41
 8002a1a:	26fa      	movs	r6, #250	@ 0xfa
 8002a1c:	5ca2      	ldrb	r2, [r4, r2]
 8002a1e:	681a      	ldr	r2, [r3, #0]
 8002a20:	43b2      	bics	r2, r6
 8002a22:	601a      	str	r2, [r3, #0]
 8002a24:	2221      	movs	r2, #33	@ 0x21
 8002a26:	6322      	str	r2, [r4, #48]	@ 0x30
 8002a28:	2280      	movs	r2, #128	@ 0x80
 8002a2a:	685e      	ldr	r6, [r3, #4]
 8002a2c:	0212      	lsls	r2, r2, #8
 8002a2e:	4332      	orrs	r2, r6
 8002a30:	605a      	str	r2, [r3, #4]
 8002a32:	685a      	ldr	r2, [r3, #4]
 8002a34:	4e69      	ldr	r6, [pc, #420]	@ (8002bdc <I2C_ITSlaveCplt.constprop.0+0x1e8>)
 8002a36:	4032      	ands	r2, r6
 8002a38:	605a      	str	r2, [r3, #4]
 8002a3a:	699a      	ldr	r2, [r3, #24]
 8002a3c:	0792      	lsls	r2, r2, #30
 8002a3e:	d501      	bpl.n	8002a44 <I2C_ITSlaveCplt.constprop.0+0x50>
 8002a40:	2200      	movs	r2, #0
 8002a42:	629a      	str	r2, [r3, #40]	@ 0x28
 8002a44:	2201      	movs	r2, #1
 8002a46:	699e      	ldr	r6, [r3, #24]
 8002a48:	4232      	tst	r2, r6
 8002a4a:	d102      	bne.n	8002a52 <I2C_ITSlaveCplt.constprop.0+0x5e>
 8002a4c:	699e      	ldr	r6, [r3, #24]
 8002a4e:	4332      	orrs	r2, r6
 8002a50:	619a      	str	r2, [r3, #24]
 8002a52:	044a      	lsls	r2, r1, #17
 8002a54:	d53b      	bpl.n	8002ace <I2C_ITSlaveCplt.constprop.0+0xda>
 8002a56:	681a      	ldr	r2, [r3, #0]
 8002a58:	4e61      	ldr	r6, [pc, #388]	@ (8002be0 <I2C_ITSlaveCplt.constprop.0+0x1ec>)
 8002a5a:	4032      	ands	r2, r6
 8002a5c:	601a      	str	r2, [r3, #0]
 8002a5e:	6ba2      	ldr	r2, [r4, #56]	@ 0x38
 8002a60:	2a00      	cmp	r2, #0
 8002a62:	d003      	beq.n	8002a6c <I2C_ITSlaveCplt.constprop.0+0x78>
 8002a64:	6812      	ldr	r2, [r2, #0]
 8002a66:	6852      	ldr	r2, [r2, #4]
 8002a68:	b292      	uxth	r2, r2
 8002a6a:	8562      	strh	r2, [r4, #42]	@ 0x2a
 8002a6c:	2204      	movs	r2, #4
 8002a6e:	422a      	tst	r2, r5
 8002a70:	d009      	beq.n	8002a86 <I2C_ITSlaveCplt.constprop.0+0x92>
 8002a72:	4395      	bics	r5, r2
 8002a74:	6a5a      	ldr	r2, [r3, #36]	@ 0x24
 8002a76:	6a63      	ldr	r3, [r4, #36]	@ 0x24
 8002a78:	701a      	strb	r2, [r3, #0]
 8002a7a:	6a63      	ldr	r3, [r4, #36]	@ 0x24
 8002a7c:	3301      	adds	r3, #1
 8002a7e:	6263      	str	r3, [r4, #36]	@ 0x24
 8002a80:	8d23      	ldrh	r3, [r4, #40]	@ 0x28
 8002a82:	2b00      	cmp	r3, #0
 8002a84:	d14a      	bne.n	8002b1c <I2C_ITSlaveCplt.constprop.0+0x128>
 8002a86:	8d63      	ldrh	r3, [r4, #42]	@ 0x2a
 8002a88:	2b00      	cmp	r3, #0
 8002a8a:	d003      	beq.n	8002a94 <I2C_ITSlaveCplt.constprop.0+0xa0>
 8002a8c:	2204      	movs	r2, #4
 8002a8e:	6c63      	ldr	r3, [r4, #68]	@ 0x44
 8002a90:	4313      	orrs	r3, r2
 8002a92:	6463      	str	r3, [r4, #68]	@ 0x44
 8002a94:	2310      	movs	r3, #16
 8002a96:	422b      	tst	r3, r5
 8002a98:	d001      	beq.n	8002a9e <I2C_ITSlaveCplt.constprop.0+0xaa>
 8002a9a:	420b      	tst	r3, r1
 8002a9c:	d12f      	bne.n	8002afe <I2C_ITSlaveCplt.constprop.0+0x10a>
 8002a9e:	2300      	movs	r3, #0
 8002aa0:	2242      	movs	r2, #66	@ 0x42
 8002aa2:	54a3      	strb	r3, [r4, r2]
 8002aa4:	6c66      	ldr	r6, [r4, #68]	@ 0x44
 8002aa6:	6363      	str	r3, [r4, #52]	@ 0x34
 8002aa8:	2e00      	cmp	r6, #0
 8002aaa:	d151      	bne.n	8002b50 <I2C_ITSlaveCplt.constprop.0+0x15c>
 8002aac:	6ae3      	ldr	r3, [r4, #44]	@ 0x2c
 8002aae:	4d4d      	ldr	r5, [pc, #308]	@ (8002be4 <I2C_ITSlaveCplt.constprop.0+0x1f0>)
 8002ab0:	42ab      	cmp	r3, r5
 8002ab2:	d116      	bne.n	8002ae2 <I2C_ITSlaveCplt.constprop.0+0xee>
 8002ab4:	2341      	movs	r3, #65	@ 0x41
 8002ab6:	5ce2      	ldrb	r2, [r4, r3]
 8002ab8:	2a22      	cmp	r2, #34	@ 0x22
 8002aba:	d065      	beq.n	8002b88 <I2C_ITSlaveCplt.constprop.0+0x194>
 8002abc:	2220      	movs	r2, #32
 8002abe:	54e2      	strb	r2, [r4, r3]
 8002ac0:	2340      	movs	r3, #64	@ 0x40
 8002ac2:	6326      	str	r6, [r4, #48]	@ 0x30
 8002ac4:	0020      	movs	r0, r4
 8002ac6:	54e6      	strb	r6, [r4, r3]
 8002ac8:	f7ff fdb6 	bl	8002638 <HAL_I2C_SlaveTxCpltCallback>
 8002acc:	bd70      	pop	{r4, r5, r6, pc}
 8002ace:	040a      	lsls	r2, r1, #16
 8002ad0:	d5cc      	bpl.n	8002a6c <I2C_ITSlaveCplt.constprop.0+0x78>
 8002ad2:	681a      	ldr	r2, [r3, #0]
 8002ad4:	4e44      	ldr	r6, [pc, #272]	@ (8002be8 <I2C_ITSlaveCplt.constprop.0+0x1f4>)
 8002ad6:	4032      	ands	r2, r6
 8002ad8:	601a      	str	r2, [r3, #0]
 8002ada:	6be2      	ldr	r2, [r4, #60]	@ 0x3c
 8002adc:	2a00      	cmp	r2, #0
 8002ade:	d1c1      	bne.n	8002a64 <I2C_ITSlaveCplt.constprop.0+0x70>
 8002ae0:	e7c4      	b.n	8002a6c <I2C_ITSlaveCplt.constprop.0+0x78>
 8002ae2:	0020      	movs	r0, r4
 8002ae4:	f7ff fdaa 	bl	800263c <I2C_ITSlaveSeqCplt>
 8002ae8:	2341      	movs	r3, #65	@ 0x41
 8002aea:	2220      	movs	r2, #32
 8002aec:	62e5      	str	r5, [r4, #44]	@ 0x2c
 8002aee:	54e2      	strb	r2, [r4, r3]
 8002af0:	3b01      	subs	r3, #1
 8002af2:	6326      	str	r6, [r4, #48]	@ 0x30
 8002af4:	0020      	movs	r0, r4
 8002af6:	54e6      	strb	r6, [r4, r3]
 8002af8:	f7ff fe36 	bl	8002768 <HAL_I2C_ListenCpltCallback>
 8002afc:	e7e6      	b.n	8002acc <I2C_ITSlaveCplt.constprop.0+0xd8>
 8002afe:	8d62      	ldrh	r2, [r4, #42]	@ 0x2a
 8002b00:	2a00      	cmp	r2, #0
 8002b02:	d132      	bne.n	8002b6a <I2C_ITSlaveCplt.constprop.0+0x176>
 8002b04:	3331      	adds	r3, #49	@ 0x31
 8002b06:	5ce3      	ldrb	r3, [r4, r3]
 8002b08:	2b28      	cmp	r3, #40	@ 0x28
 8002b0a:	d046      	beq.n	8002b9a <I2C_ITSlaveCplt.constprop.0+0x1a6>
 8002b0c:	2341      	movs	r3, #65	@ 0x41
 8002b0e:	5ce2      	ldrb	r2, [r4, r3]
 8002b10:	6823      	ldr	r3, [r4, #0]
 8002b12:	2a29      	cmp	r2, #41	@ 0x29
 8002b14:	d04a      	beq.n	8002bac <I2C_ITSlaveCplt.constprop.0+0x1b8>
 8002b16:	2210      	movs	r2, #16
 8002b18:	61da      	str	r2, [r3, #28]
 8002b1a:	e7c0      	b.n	8002a9e <I2C_ITSlaveCplt.constprop.0+0xaa>
 8002b1c:	3b01      	subs	r3, #1
 8002b1e:	8523      	strh	r3, [r4, #40]	@ 0x28
 8002b20:	8d63      	ldrh	r3, [r4, #42]	@ 0x2a
 8002b22:	3b01      	subs	r3, #1
 8002b24:	b29b      	uxth	r3, r3
 8002b26:	8563      	strh	r3, [r4, #42]	@ 0x2a
 8002b28:	e7ad      	b.n	8002a86 <I2C_ITSlaveCplt.constprop.0+0x92>
 8002b2a:	2241      	movs	r2, #65	@ 0x41
 8002b2c:	26fc      	movs	r6, #252	@ 0xfc
 8002b2e:	5ca2      	ldrb	r2, [r4, r2]
 8002b30:	681a      	ldr	r2, [r3, #0]
 8002b32:	43b2      	bics	r2, r6
 8002b34:	601a      	str	r2, [r3, #0]
 8002b36:	2222      	movs	r2, #34	@ 0x22
 8002b38:	6322      	str	r2, [r4, #48]	@ 0x30
 8002b3a:	e775      	b.n	8002a28 <I2C_ITSlaveCplt.constprop.0+0x34>
 8002b3c:	2241      	movs	r2, #65	@ 0x41
 8002b3e:	5ca6      	ldrb	r6, [r4, r2]
 8002b40:	26fe      	movs	r6, #254	@ 0xfe
 8002b42:	5ca2      	ldrb	r2, [r4, r2]
 8002b44:	681a      	ldr	r2, [r3, #0]
 8002b46:	43b2      	bics	r2, r6
 8002b48:	601a      	str	r2, [r3, #0]
 8002b4a:	2200      	movs	r2, #0
 8002b4c:	6322      	str	r2, [r4, #48]	@ 0x30
 8002b4e:	e76b      	b.n	8002a28 <I2C_ITSlaveCplt.constprop.0+0x34>
 8002b50:	0020      	movs	r0, r4
 8002b52:	6c61      	ldr	r1, [r4, #68]	@ 0x44
 8002b54:	f7ff fe60 	bl	8002818 <I2C_ITError>
 8002b58:	2341      	movs	r3, #65	@ 0x41
 8002b5a:	5ce3      	ldrb	r3, [r4, r3]
 8002b5c:	2b28      	cmp	r3, #40	@ 0x28
 8002b5e:	d1b5      	bne.n	8002acc <I2C_ITSlaveCplt.constprop.0+0xd8>
 8002b60:	0029      	movs	r1, r5
 8002b62:	0020      	movs	r0, r4
 8002b64:	f7ff fe02 	bl	800276c <I2C_ITListenCplt>
 8002b68:	e7b0      	b.n	8002acc <I2C_ITSlaveCplt.constprop.0+0xd8>
 8002b6a:	6822      	ldr	r2, [r4, #0]
 8002b6c:	61d3      	str	r3, [r2, #28]
 8002b6e:	2204      	movs	r2, #4
 8002b70:	6c63      	ldr	r3, [r4, #68]	@ 0x44
 8002b72:	4313      	orrs	r3, r2
 8002b74:	6463      	str	r3, [r4, #68]	@ 0x44
 8002b76:	4b1d      	ldr	r3, [pc, #116]	@ (8002bec <I2C_ITSlaveCplt.constprop.0+0x1f8>)
 8002b78:	4218      	tst	r0, r3
 8002b7a:	d000      	beq.n	8002b7e <I2C_ITSlaveCplt.constprop.0+0x18a>
 8002b7c:	e78f      	b.n	8002a9e <I2C_ITSlaveCplt.constprop.0+0xaa>
 8002b7e:	0020      	movs	r0, r4
 8002b80:	6c61      	ldr	r1, [r4, #68]	@ 0x44
 8002b82:	f7ff fe49 	bl	8002818 <I2C_ITError>
 8002b86:	e78a      	b.n	8002a9e <I2C_ITSlaveCplt.constprop.0+0xaa>
 8002b88:	3a02      	subs	r2, #2
 8002b8a:	54e2      	strb	r2, [r4, r3]
 8002b8c:	3b01      	subs	r3, #1
 8002b8e:	6326      	str	r6, [r4, #48]	@ 0x30
 8002b90:	0020      	movs	r0, r4
 8002b92:	54e6      	strb	r6, [r4, r3]
 8002b94:	f7fe fc96 	bl	80014c4 <HAL_I2C_SlaveRxCpltCallback>
 8002b98:	e798      	b.n	8002acc <I2C_ITSlaveCplt.constprop.0+0xd8>
 8002b9a:	2380      	movs	r3, #128	@ 0x80
 8002b9c:	049b      	lsls	r3, r3, #18
 8002b9e:	4298      	cmp	r0, r3
 8002ba0:	d1b4      	bne.n	8002b0c <I2C_ITSlaveCplt.constprop.0+0x118>
 8002ba2:	0029      	movs	r1, r5
 8002ba4:	0020      	movs	r0, r4
 8002ba6:	f7ff fde1 	bl	800276c <I2C_ITListenCplt>
 8002baa:	e778      	b.n	8002a9e <I2C_ITSlaveCplt.constprop.0+0xaa>
 8002bac:	4a0d      	ldr	r2, [pc, #52]	@ (8002be4 <I2C_ITSlaveCplt.constprop.0+0x1f0>)
 8002bae:	4290      	cmp	r0, r2
 8002bb0:	d0b1      	beq.n	8002b16 <I2C_ITSlaveCplt.constprop.0+0x122>
 8002bb2:	2210      	movs	r2, #16
 8002bb4:	61da      	str	r2, [r3, #28]
 8002bb6:	699a      	ldr	r2, [r3, #24]
 8002bb8:	0792      	lsls	r2, r2, #30
 8002bba:	d501      	bpl.n	8002bc0 <I2C_ITSlaveCplt.constprop.0+0x1cc>
 8002bbc:	2200      	movs	r2, #0
 8002bbe:	629a      	str	r2, [r3, #40]	@ 0x28
 8002bc0:	2201      	movs	r2, #1
 8002bc2:	6999      	ldr	r1, [r3, #24]
 8002bc4:	420a      	tst	r2, r1
 8002bc6:	d102      	bne.n	8002bce <I2C_ITSlaveCplt.constprop.0+0x1da>
 8002bc8:	6999      	ldr	r1, [r3, #24]
 8002bca:	430a      	orrs	r2, r1
 8002bcc:	619a      	str	r2, [r3, #24]
 8002bce:	0020      	movs	r0, r4
 8002bd0:	f7ff fd34 	bl	800263c <I2C_ITSlaveSeqCplt>
 8002bd4:	e763      	b.n	8002a9e <I2C_ITSlaveCplt.constprop.0+0xaa>
 8002bd6:	46c0      	nop			@ (mov r8, r8)
 8002bd8:	080038ac 	.word	0x080038ac
 8002bdc:	fe00e800 	.word	0xfe00e800
 8002be0:	ffffbfff 	.word	0xffffbfff
 8002be4:	ffff0000 	.word	0xffff0000
 8002be8:	ffff7fff 	.word	0xffff7fff
 8002bec:	feffffff 	.word	0xfeffffff

08002bf0 <I2C_Slave_ISR_IT>:
 8002bf0:	2340      	movs	r3, #64	@ 0x40
 8002bf2:	b570      	push	{r4, r5, r6, lr}
 8002bf4:	0004      	movs	r4, r0
 8002bf6:	6ac5      	ldr	r5, [r0, #44]	@ 0x2c
 8002bf8:	5cc0      	ldrb	r0, [r0, r3]
 8002bfa:	2801      	cmp	r0, #1
 8002bfc:	d100      	bne.n	8002c00 <I2C_Slave_ISR_IT+0x10>
 8002bfe:	e068      	b.n	8002cd2 <I2C_Slave_ISR_IT+0xe2>
 8002c00:	2001      	movs	r0, #1
 8002c02:	54e0      	strb	r0, [r4, r3]
 8002c04:	3b20      	subs	r3, #32
 8002c06:	420b      	tst	r3, r1
 8002c08:	d001      	beq.n	8002c0e <I2C_Slave_ISR_IT+0x1e>
 8002c0a:	4213      	tst	r3, r2
 8002c0c:	d154      	bne.n	8002cb8 <I2C_Slave_ISR_IT+0xc8>
 8002c0e:	2310      	movs	r3, #16
 8002c10:	420b      	tst	r3, r1
 8002c12:	d016      	beq.n	8002c42 <I2C_Slave_ISR_IT+0x52>
 8002c14:	4213      	tst	r3, r2
 8002c16:	d014      	beq.n	8002c42 <I2C_Slave_ISR_IT+0x52>
 8002c18:	8d62      	ldrh	r2, [r4, #42]	@ 0x2a
 8002c1a:	2a00      	cmp	r2, #0
 8002c1c:	d15b      	bne.n	8002cd6 <I2C_Slave_ISR_IT+0xe6>
 8002c1e:	3331      	adds	r3, #49	@ 0x31
 8002c20:	5ce3      	ldrb	r3, [r4, r3]
 8002c22:	2b28      	cmp	r3, #40	@ 0x28
 8002c24:	d100      	bne.n	8002c28 <I2C_Slave_ISR_IT+0x38>
 8002c26:	e06c      	b.n	8002d02 <I2C_Slave_ISR_IT+0x112>
 8002c28:	2341      	movs	r3, #65	@ 0x41
 8002c2a:	5ce2      	ldrb	r2, [r4, r3]
 8002c2c:	6823      	ldr	r3, [r4, #0]
 8002c2e:	2a29      	cmp	r2, #41	@ 0x29
 8002c30:	d100      	bne.n	8002c34 <I2C_Slave_ISR_IT+0x44>
 8002c32:	e06f      	b.n	8002d14 <I2C_Slave_ISR_IT+0x124>
 8002c34:	2210      	movs	r2, #16
 8002c36:	61da      	str	r2, [r3, #28]
 8002c38:	2340      	movs	r3, #64	@ 0x40
 8002c3a:	2200      	movs	r2, #0
 8002c3c:	2000      	movs	r0, #0
 8002c3e:	54e2      	strb	r2, [r4, r3]
 8002c40:	bd70      	pop	{r4, r5, r6, pc}
 8002c42:	2304      	movs	r3, #4
 8002c44:	420b      	tst	r3, r1
 8002c46:	d11a      	bne.n	8002c7e <I2C_Slave_ISR_IT+0x8e>
 8002c48:	2308      	movs	r3, #8
 8002c4a:	420b      	tst	r3, r1
 8002c4c:	d001      	beq.n	8002c52 <I2C_Slave_ISR_IT+0x62>
 8002c4e:	4213      	tst	r3, r2
 8002c50:	d136      	bne.n	8002cc0 <I2C_Slave_ISR_IT+0xd0>
 8002c52:	2302      	movs	r3, #2
 8002c54:	420b      	tst	r3, r1
 8002c56:	d0ef      	beq.n	8002c38 <I2C_Slave_ISR_IT+0x48>
 8002c58:	4213      	tst	r3, r2
 8002c5a:	d0ed      	beq.n	8002c38 <I2C_Slave_ISR_IT+0x48>
 8002c5c:	8d63      	ldrh	r3, [r4, #42]	@ 0x2a
 8002c5e:	2b00      	cmp	r3, #0
 8002c60:	d047      	beq.n	8002cf2 <I2C_Slave_ISR_IT+0x102>
 8002c62:	6a63      	ldr	r3, [r4, #36]	@ 0x24
 8002c64:	6822      	ldr	r2, [r4, #0]
 8002c66:	7819      	ldrb	r1, [r3, #0]
 8002c68:	3301      	adds	r3, #1
 8002c6a:	6291      	str	r1, [r2, #40]	@ 0x28
 8002c6c:	6263      	str	r3, [r4, #36]	@ 0x24
 8002c6e:	8d63      	ldrh	r3, [r4, #42]	@ 0x2a
 8002c70:	3b01      	subs	r3, #1
 8002c72:	b29b      	uxth	r3, r3
 8002c74:	8563      	strh	r3, [r4, #42]	@ 0x2a
 8002c76:	8d23      	ldrh	r3, [r4, #40]	@ 0x28
 8002c78:	3b01      	subs	r3, #1
 8002c7a:	8523      	strh	r3, [r4, #40]	@ 0x28
 8002c7c:	e7dc      	b.n	8002c38 <I2C_Slave_ISR_IT+0x48>
 8002c7e:	4213      	tst	r3, r2
 8002c80:	d0e2      	beq.n	8002c48 <I2C_Slave_ISR_IT+0x58>
 8002c82:	8d63      	ldrh	r3, [r4, #42]	@ 0x2a
 8002c84:	2b00      	cmp	r3, #0
 8002c86:	d00d      	beq.n	8002ca4 <I2C_Slave_ISR_IT+0xb4>
 8002c88:	6823      	ldr	r3, [r4, #0]
 8002c8a:	6a5a      	ldr	r2, [r3, #36]	@ 0x24
 8002c8c:	6a63      	ldr	r3, [r4, #36]	@ 0x24
 8002c8e:	701a      	strb	r2, [r3, #0]
 8002c90:	6a63      	ldr	r3, [r4, #36]	@ 0x24
 8002c92:	3301      	adds	r3, #1
 8002c94:	6263      	str	r3, [r4, #36]	@ 0x24
 8002c96:	8d23      	ldrh	r3, [r4, #40]	@ 0x28
 8002c98:	3b01      	subs	r3, #1
 8002c9a:	8523      	strh	r3, [r4, #40]	@ 0x28
 8002c9c:	8d63      	ldrh	r3, [r4, #42]	@ 0x2a
 8002c9e:	3b01      	subs	r3, #1
 8002ca0:	b29b      	uxth	r3, r3
 8002ca2:	8563      	strh	r3, [r4, #42]	@ 0x2a
 8002ca4:	8d63      	ldrh	r3, [r4, #42]	@ 0x2a
 8002ca6:	2b00      	cmp	r3, #0
 8002ca8:	d1c6      	bne.n	8002c38 <I2C_Slave_ISR_IT+0x48>
 8002caa:	4b24      	ldr	r3, [pc, #144]	@ (8002d3c <I2C_Slave_ISR_IT+0x14c>)
 8002cac:	429d      	cmp	r5, r3
 8002cae:	d0c3      	beq.n	8002c38 <I2C_Slave_ISR_IT+0x48>
 8002cb0:	0020      	movs	r0, r4
 8002cb2:	f7ff fcc3 	bl	800263c <I2C_ITSlaveSeqCplt>
 8002cb6:	e7bf      	b.n	8002c38 <I2C_Slave_ISR_IT+0x48>
 8002cb8:	0020      	movs	r0, r4
 8002cba:	f7ff fe9b 	bl	80029f4 <I2C_ITSlaveCplt.constprop.0>
 8002cbe:	e7bb      	b.n	8002c38 <I2C_Slave_ISR_IT+0x48>
 8002cc0:	2241      	movs	r2, #65	@ 0x41
 8002cc2:	5ca1      	ldrb	r1, [r4, r2]
 8002cc4:	3a19      	subs	r2, #25
 8002cc6:	400a      	ands	r2, r1
 8002cc8:	2a28      	cmp	r2, #40	@ 0x28
 8002cca:	d016      	beq.n	8002cfa <I2C_Slave_ISR_IT+0x10a>
 8002ccc:	6822      	ldr	r2, [r4, #0]
 8002cce:	61d3      	str	r3, [r2, #28]
 8002cd0:	e7b2      	b.n	8002c38 <I2C_Slave_ISR_IT+0x48>
 8002cd2:	2002      	movs	r0, #2
 8002cd4:	e7b4      	b.n	8002c40 <I2C_Slave_ISR_IT+0x50>
 8002cd6:	6822      	ldr	r2, [r4, #0]
 8002cd8:	61d3      	str	r3, [r2, #28]
 8002cda:	2204      	movs	r2, #4
 8002cdc:	6c63      	ldr	r3, [r4, #68]	@ 0x44
 8002cde:	4313      	orrs	r3, r2
 8002ce0:	6463      	str	r3, [r4, #68]	@ 0x44
 8002ce2:	4b17      	ldr	r3, [pc, #92]	@ (8002d40 <I2C_Slave_ISR_IT+0x150>)
 8002ce4:	421d      	tst	r5, r3
 8002ce6:	d1a7      	bne.n	8002c38 <I2C_Slave_ISR_IT+0x48>
 8002ce8:	0020      	movs	r0, r4
 8002cea:	6c61      	ldr	r1, [r4, #68]	@ 0x44
 8002cec:	f7ff fd94 	bl	8002818 <I2C_ITError>
 8002cf0:	e7a2      	b.n	8002c38 <I2C_Slave_ISR_IT+0x48>
 8002cf2:	4b13      	ldr	r3, [pc, #76]	@ (8002d40 <I2C_Slave_ISR_IT+0x150>)
 8002cf4:	421d      	tst	r5, r3
 8002cf6:	d19f      	bne.n	8002c38 <I2C_Slave_ISR_IT+0x48>
 8002cf8:	e7da      	b.n	8002cb0 <I2C_Slave_ISR_IT+0xc0>
 8002cfa:	0020      	movs	r0, r4
 8002cfc:	f7ff fcee 	bl	80026dc <I2C_ITAddrCplt.part.0.constprop.0>
 8002d00:	e79a      	b.n	8002c38 <I2C_Slave_ISR_IT+0x48>
 8002d02:	2380      	movs	r3, #128	@ 0x80
 8002d04:	049b      	lsls	r3, r3, #18
 8002d06:	429d      	cmp	r5, r3
 8002d08:	d000      	beq.n	8002d0c <I2C_Slave_ISR_IT+0x11c>
 8002d0a:	e78d      	b.n	8002c28 <I2C_Slave_ISR_IT+0x38>
 8002d0c:	0020      	movs	r0, r4
 8002d0e:	f7ff fd2d 	bl	800276c <I2C_ITListenCplt>
 8002d12:	e791      	b.n	8002c38 <I2C_Slave_ISR_IT+0x48>
 8002d14:	4a09      	ldr	r2, [pc, #36]	@ (8002d3c <I2C_Slave_ISR_IT+0x14c>)
 8002d16:	4295      	cmp	r5, r2
 8002d18:	d100      	bne.n	8002d1c <I2C_Slave_ISR_IT+0x12c>
 8002d1a:	e78b      	b.n	8002c34 <I2C_Slave_ISR_IT+0x44>
 8002d1c:	2210      	movs	r2, #16
 8002d1e:	61da      	str	r2, [r3, #28]
 8002d20:	699a      	ldr	r2, [r3, #24]
 8002d22:	0792      	lsls	r2, r2, #30
 8002d24:	d501      	bpl.n	8002d2a <I2C_Slave_ISR_IT+0x13a>
 8002d26:	2200      	movs	r2, #0
 8002d28:	629a      	str	r2, [r3, #40]	@ 0x28
 8002d2a:	2201      	movs	r2, #1
 8002d2c:	6999      	ldr	r1, [r3, #24]
 8002d2e:	420a      	tst	r2, r1
 8002d30:	d1be      	bne.n	8002cb0 <I2C_Slave_ISR_IT+0xc0>
 8002d32:	6999      	ldr	r1, [r3, #24]
 8002d34:	430a      	orrs	r2, r1
 8002d36:	619a      	str	r2, [r3, #24]
 8002d38:	e7ba      	b.n	8002cb0 <I2C_Slave_ISR_IT+0xc0>
 8002d3a:	46c0      	nop			@ (mov r8, r8)
 8002d3c:	ffff0000 	.word	0xffff0000
 8002d40:	feffffff 	.word	0xfeffffff

08002d44 <HAL_I2C_GetError>:
 8002d44:	6c40      	ldr	r0, [r0, #68]	@ 0x44
 8002d46:	4770      	bx	lr

08002d48 <HAL_I2CEx_ConfigAnalogFilter>:
 8002d48:	b5f0      	push	{r4, r5, r6, r7, lr}
 8002d4a:	2441      	movs	r4, #65	@ 0x41
 8002d4c:	5d03      	ldrb	r3, [r0, r4]
 8002d4e:	468c      	mov	ip, r1
 8002d50:	b2dd      	uxtb	r5, r3
 8002d52:	2b20      	cmp	r3, #32
 8002d54:	d11a      	bne.n	8002d8c <HAL_I2CEx_ConfigAnalogFilter+0x44>
 8002d56:	2640      	movs	r6, #64	@ 0x40
 8002d58:	5d83      	ldrb	r3, [r0, r6]
 8002d5a:	2b01      	cmp	r3, #1
 8002d5c:	d016      	beq.n	8002d8c <HAL_I2CEx_ConfigAnalogFilter+0x44>
 8002d5e:	2324      	movs	r3, #36	@ 0x24
 8002d60:	2701      	movs	r7, #1
 8002d62:	5503      	strb	r3, [r0, r4]
 8002d64:	6803      	ldr	r3, [r0, #0]
 8002d66:	490a      	ldr	r1, [pc, #40]	@ (8002d90 <HAL_I2CEx_ConfigAnalogFilter+0x48>)
 8002d68:	681a      	ldr	r2, [r3, #0]
 8002d6a:	43ba      	bics	r2, r7
 8002d6c:	601a      	str	r2, [r3, #0]
 8002d6e:	681a      	ldr	r2, [r3, #0]
 8002d70:	400a      	ands	r2, r1
 8002d72:	601a      	str	r2, [r3, #0]
 8002d74:	4662      	mov	r2, ip
 8002d76:	6819      	ldr	r1, [r3, #0]
 8002d78:	4311      	orrs	r1, r2
 8002d7a:	6019      	str	r1, [r3, #0]
 8002d7c:	681a      	ldr	r2, [r3, #0]
 8002d7e:	433a      	orrs	r2, r7
 8002d80:	601a      	str	r2, [r3, #0]
 8002d82:	2300      	movs	r3, #0
 8002d84:	5505      	strb	r5, [r0, r4]
 8002d86:	5583      	strb	r3, [r0, r6]
 8002d88:	2000      	movs	r0, #0
 8002d8a:	bdf0      	pop	{r4, r5, r6, r7, pc}
 8002d8c:	2002      	movs	r0, #2
 8002d8e:	e7fc      	b.n	8002d8a <HAL_I2CEx_ConfigAnalogFilter+0x42>
 8002d90:	ffffefff 	.word	0xffffefff

08002d94 <HAL_I2CEx_ConfigDigitalFilter>:
 8002d94:	b5f0      	push	{r4, r5, r6, r7, lr}
 8002d96:	46ce      	mov	lr, r9
 8002d98:	4647      	mov	r7, r8
 8002d9a:	2441      	movs	r4, #65	@ 0x41
 8002d9c:	b580      	push	{r7, lr}
 8002d9e:	5d03      	ldrb	r3, [r0, r4]
 8002da0:	b2dd      	uxtb	r5, r3
 8002da2:	2b20      	cmp	r3, #32
 8002da4:	d11f      	bne.n	8002de6 <HAL_I2CEx_ConfigDigitalFilter+0x52>
 8002da6:	2640      	movs	r6, #64	@ 0x40
 8002da8:	5d83      	ldrb	r3, [r0, r6]
 8002daa:	2b01      	cmp	r3, #1
 8002dac:	d01b      	beq.n	8002de6 <HAL_I2CEx_ConfigDigitalFilter+0x52>
 8002dae:	2324      	movs	r3, #36	@ 0x24
 8002db0:	2701      	movs	r7, #1
 8002db2:	5503      	strb	r3, [r0, r4]
 8002db4:	6802      	ldr	r2, [r0, #0]
 8002db6:	46b9      	mov	r9, r7
 8002db8:	6813      	ldr	r3, [r2, #0]
 8002dba:	0209      	lsls	r1, r1, #8
 8002dbc:	43bb      	bics	r3, r7
 8002dbe:	6013      	str	r3, [r2, #0]
 8002dc0:	6813      	ldr	r3, [r2, #0]
 8002dc2:	4698      	mov	r8, r3
 8002dc4:	4647      	mov	r7, r8
 8002dc6:	4b09      	ldr	r3, [pc, #36]	@ (8002dec <HAL_I2CEx_ConfigDigitalFilter+0x58>)
 8002dc8:	401f      	ands	r7, r3
 8002dca:	4339      	orrs	r1, r7
 8002dcc:	6011      	str	r1, [r2, #0]
 8002dce:	4649      	mov	r1, r9
 8002dd0:	6813      	ldr	r3, [r2, #0]
 8002dd2:	430b      	orrs	r3, r1
 8002dd4:	6013      	str	r3, [r2, #0]
 8002dd6:	2300      	movs	r3, #0
 8002dd8:	5505      	strb	r5, [r0, r4]
 8002dda:	5583      	strb	r3, [r0, r6]
 8002ddc:	2000      	movs	r0, #0
 8002dde:	bcc0      	pop	{r6, r7}
 8002de0:	46b9      	mov	r9, r7
 8002de2:	46b0      	mov	r8, r6
 8002de4:	bdf0      	pop	{r4, r5, r6, r7, pc}
 8002de6:	2002      	movs	r0, #2
 8002de8:	e7f9      	b.n	8002dde <HAL_I2CEx_ConfigDigitalFilter+0x4a>
 8002dea:	46c0      	nop			@ (mov r8, r8)
 8002dec:	fffff0ff 	.word	0xfffff0ff

08002df0 <HAL_RCC_OscConfig>:
 8002df0:	b5f8      	push	{r3, r4, r5, r6, r7, lr}
 8002df2:	1e04      	subs	r4, r0, #0
 8002df4:	d100      	bne.n	8002df8 <HAL_RCC_OscConfig+0x8>
 8002df6:	e0aa      	b.n	8002f4e <HAL_RCC_OscConfig+0x15e>
 8002df8:	6803      	ldr	r3, [r0, #0]
 8002dfa:	07da      	lsls	r2, r3, #31
 8002dfc:	d52c      	bpl.n	8002e58 <HAL_RCC_OscConfig+0x68>
 8002dfe:	2238      	movs	r2, #56	@ 0x38
 8002e00:	4d95      	ldr	r5, [pc, #596]	@ (8003058 <HAL_RCC_OscConfig+0x268>)
 8002e02:	6861      	ldr	r1, [r4, #4]
 8002e04:	68a8      	ldr	r0, [r5, #8]
 8002e06:	4002      	ands	r2, r0
 8002e08:	2a08      	cmp	r2, #8
 8002e0a:	d100      	bne.n	8002e0e <HAL_RCC_OscConfig+0x1e>
 8002e0c:	e09d      	b.n	8002f4a <HAL_RCC_OscConfig+0x15a>
 8002e0e:	2380      	movs	r3, #128	@ 0x80
 8002e10:	025b      	lsls	r3, r3, #9
 8002e12:	4299      	cmp	r1, r3
 8002e14:	d100      	bne.n	8002e18 <HAL_RCC_OscConfig+0x28>
 8002e16:	e0ba      	b.n	8002f8e <HAL_RCC_OscConfig+0x19e>
 8002e18:	22a0      	movs	r2, #160	@ 0xa0
 8002e1a:	02d2      	lsls	r2, r2, #11
 8002e1c:	4291      	cmp	r1, r2
 8002e1e:	d100      	bne.n	8002e22 <HAL_RCC_OscConfig+0x32>
 8002e20:	e106      	b.n	8003030 <HAL_RCC_OscConfig+0x240>
 8002e22:	682b      	ldr	r3, [r5, #0]
 8002e24:	4a8d      	ldr	r2, [pc, #564]	@ (800305c <HAL_RCC_OscConfig+0x26c>)
 8002e26:	4013      	ands	r3, r2
 8002e28:	602b      	str	r3, [r5, #0]
 8002e2a:	682b      	ldr	r3, [r5, #0]
 8002e2c:	4a8c      	ldr	r2, [pc, #560]	@ (8003060 <HAL_RCC_OscConfig+0x270>)
 8002e2e:	4013      	ands	r3, r2
 8002e30:	602b      	str	r3, [r5, #0]
 8002e32:	2900      	cmp	r1, #0
 8002e34:	d000      	beq.n	8002e38 <HAL_RCC_OscConfig+0x48>
 8002e36:	e0ad      	b.n	8002f94 <HAL_RCC_OscConfig+0x1a4>
 8002e38:	f7fe fec2 	bl	8001bc0 <HAL_GetTick>
 8002e3c:	2780      	movs	r7, #128	@ 0x80
 8002e3e:	0006      	movs	r6, r0
 8002e40:	02bf      	lsls	r7, r7, #10
 8002e42:	e005      	b.n	8002e50 <HAL_RCC_OscConfig+0x60>
 8002e44:	f7fe febc 	bl	8001bc0 <HAL_GetTick>
 8002e48:	1b80      	subs	r0, r0, r6
 8002e4a:	2864      	cmp	r0, #100	@ 0x64
 8002e4c:	d900      	bls.n	8002e50 <HAL_RCC_OscConfig+0x60>
 8002e4e:	e0c9      	b.n	8002fe4 <HAL_RCC_OscConfig+0x1f4>
 8002e50:	682b      	ldr	r3, [r5, #0]
 8002e52:	423b      	tst	r3, r7
 8002e54:	d1f6      	bne.n	8002e44 <HAL_RCC_OscConfig+0x54>
 8002e56:	6823      	ldr	r3, [r4, #0]
 8002e58:	079a      	lsls	r2, r3, #30
 8002e5a:	d44b      	bmi.n	8002ef4 <HAL_RCC_OscConfig+0x104>
 8002e5c:	071a      	lsls	r2, r3, #28
 8002e5e:	d51d      	bpl.n	8002e9c <HAL_RCC_OscConfig+0xac>
 8002e60:	2238      	movs	r2, #56	@ 0x38
 8002e62:	4d7d      	ldr	r5, [pc, #500]	@ (8003058 <HAL_RCC_OscConfig+0x268>)
 8002e64:	69a1      	ldr	r1, [r4, #24]
 8002e66:	68a8      	ldr	r0, [r5, #8]
 8002e68:	4002      	ands	r2, r0
 8002e6a:	2a18      	cmp	r2, #24
 8002e6c:	d100      	bne.n	8002e70 <HAL_RCC_OscConfig+0x80>
 8002e6e:	e0a2      	b.n	8002fb6 <HAL_RCC_OscConfig+0x1c6>
 8002e70:	2201      	movs	r2, #1
 8002e72:	6e2b      	ldr	r3, [r5, #96]	@ 0x60
 8002e74:	2900      	cmp	r1, #0
 8002e76:	d100      	bne.n	8002e7a <HAL_RCC_OscConfig+0x8a>
 8002e78:	e0c9      	b.n	800300e <HAL_RCC_OscConfig+0x21e>
 8002e7a:	4313      	orrs	r3, r2
 8002e7c:	662b      	str	r3, [r5, #96]	@ 0x60
 8002e7e:	f7fe fe9f 	bl	8001bc0 <HAL_GetTick>
 8002e82:	2702      	movs	r7, #2
 8002e84:	0006      	movs	r6, r0
 8002e86:	e005      	b.n	8002e94 <HAL_RCC_OscConfig+0xa4>
 8002e88:	f7fe fe9a 	bl	8001bc0 <HAL_GetTick>
 8002e8c:	1b80      	subs	r0, r0, r6
 8002e8e:	2802      	cmp	r0, #2
 8002e90:	d900      	bls.n	8002e94 <HAL_RCC_OscConfig+0xa4>
 8002e92:	e0a7      	b.n	8002fe4 <HAL_RCC_OscConfig+0x1f4>
 8002e94:	6e2b      	ldr	r3, [r5, #96]	@ 0x60
 8002e96:	421f      	tst	r7, r3
 8002e98:	d0f6      	beq.n	8002e88 <HAL_RCC_OscConfig+0x98>
 8002e9a:	6823      	ldr	r3, [r4, #0]
 8002e9c:	2204      	movs	r2, #4
 8002e9e:	421a      	tst	r2, r3
 8002ea0:	d026      	beq.n	8002ef0 <HAL_RCC_OscConfig+0x100>
 8002ea2:	2338      	movs	r3, #56	@ 0x38
 8002ea4:	4d6c      	ldr	r5, [pc, #432]	@ (8003058 <HAL_RCC_OscConfig+0x268>)
 8002ea6:	68a0      	ldr	r0, [r4, #8]
 8002ea8:	68a9      	ldr	r1, [r5, #8]
 8002eaa:	400b      	ands	r3, r1
 8002eac:	2b20      	cmp	r3, #32
 8002eae:	d100      	bne.n	8002eb2 <HAL_RCC_OscConfig+0xc2>
 8002eb0:	e0c7      	b.n	8003042 <HAL_RCC_OscConfig+0x252>
 8002eb2:	6deb      	ldr	r3, [r5, #92]	@ 0x5c
 8002eb4:	2801      	cmp	r0, #1
 8002eb6:	d100      	bne.n	8002eba <HAL_RCC_OscConfig+0xca>
 8002eb8:	e081      	b.n	8002fbe <HAL_RCC_OscConfig+0x1ce>
 8002eba:	2805      	cmp	r0, #5
 8002ebc:	d100      	bne.n	8002ec0 <HAL_RCC_OscConfig+0xd0>
 8002ebe:	e0c4      	b.n	800304a <HAL_RCC_OscConfig+0x25a>
 8002ec0:	2101      	movs	r1, #1
 8002ec2:	438b      	bics	r3, r1
 8002ec4:	65eb      	str	r3, [r5, #92]	@ 0x5c
 8002ec6:	6deb      	ldr	r3, [r5, #92]	@ 0x5c
 8002ec8:	4393      	bics	r3, r2
 8002eca:	65eb      	str	r3, [r5, #92]	@ 0x5c
 8002ecc:	2800      	cmp	r0, #0
 8002ece:	d000      	beq.n	8002ed2 <HAL_RCC_OscConfig+0xe2>
 8002ed0:	e077      	b.n	8002fc2 <HAL_RCC_OscConfig+0x1d2>
 8002ed2:	f7fe fe75 	bl	8001bc0 <HAL_GetTick>
 8002ed6:	2602      	movs	r6, #2
 8002ed8:	0004      	movs	r4, r0
 8002eda:	4f62      	ldr	r7, [pc, #392]	@ (8003064 <HAL_RCC_OscConfig+0x274>)
 8002edc:	e005      	b.n	8002eea <HAL_RCC_OscConfig+0xfa>
 8002ede:	f7fe fe6f 	bl	8001bc0 <HAL_GetTick>
 8002ee2:	1b00      	subs	r0, r0, r4
 8002ee4:	42b8      	cmp	r0, r7
 8002ee6:	d900      	bls.n	8002eea <HAL_RCC_OscConfig+0xfa>
 8002ee8:	e07c      	b.n	8002fe4 <HAL_RCC_OscConfig+0x1f4>
 8002eea:	6deb      	ldr	r3, [r5, #92]	@ 0x5c
 8002eec:	421e      	tst	r6, r3
 8002eee:	d1f6      	bne.n	8002ede <HAL_RCC_OscConfig+0xee>
 8002ef0:	2000      	movs	r0, #0
 8002ef2:	e02d      	b.n	8002f50 <HAL_RCC_OscConfig+0x160>
 8002ef4:	2238      	movs	r2, #56	@ 0x38
 8002ef6:	4d58      	ldr	r5, [pc, #352]	@ (8003058 <HAL_RCC_OscConfig+0x268>)
 8002ef8:	68e1      	ldr	r1, [r4, #12]
 8002efa:	68ab      	ldr	r3, [r5, #8]
 8002efc:	421a      	tst	r2, r3
 8002efe:	d028      	beq.n	8002f52 <HAL_RCC_OscConfig+0x162>
 8002f00:	682b      	ldr	r3, [r5, #0]
 8002f02:	2900      	cmp	r1, #0
 8002f04:	d100      	bne.n	8002f08 <HAL_RCC_OscConfig+0x118>
 8002f06:	e06f      	b.n	8002fe8 <HAL_RCC_OscConfig+0x1f8>
 8002f08:	4a57      	ldr	r2, [pc, #348]	@ (8003068 <HAL_RCC_OscConfig+0x278>)
 8002f0a:	2780      	movs	r7, #128	@ 0x80
 8002f0c:	4013      	ands	r3, r2
 8002f0e:	6922      	ldr	r2, [r4, #16]
 8002f10:	00ff      	lsls	r7, r7, #3
 8002f12:	4313      	orrs	r3, r2
 8002f14:	602b      	str	r3, [r5, #0]
 8002f16:	2380      	movs	r3, #128	@ 0x80
 8002f18:	682a      	ldr	r2, [r5, #0]
 8002f1a:	005b      	lsls	r3, r3, #1
 8002f1c:	4313      	orrs	r3, r2
 8002f1e:	602b      	str	r3, [r5, #0]
 8002f20:	f7fe fe4e 	bl	8001bc0 <HAL_GetTick>
 8002f24:	0006      	movs	r6, r0
 8002f26:	e004      	b.n	8002f32 <HAL_RCC_OscConfig+0x142>
 8002f28:	f7fe fe4a 	bl	8001bc0 <HAL_GetTick>
 8002f2c:	1b80      	subs	r0, r0, r6
 8002f2e:	2802      	cmp	r0, #2
 8002f30:	d858      	bhi.n	8002fe4 <HAL_RCC_OscConfig+0x1f4>
 8002f32:	682b      	ldr	r3, [r5, #0]
 8002f34:	423b      	tst	r3, r7
 8002f36:	d0f7      	beq.n	8002f28 <HAL_RCC_OscConfig+0x138>
 8002f38:	686a      	ldr	r2, [r5, #4]
 8002f3a:	6963      	ldr	r3, [r4, #20]
 8002f3c:	494b      	ldr	r1, [pc, #300]	@ (800306c <HAL_RCC_OscConfig+0x27c>)
 8002f3e:	021b      	lsls	r3, r3, #8
 8002f40:	400a      	ands	r2, r1
 8002f42:	4313      	orrs	r3, r2
 8002f44:	606b      	str	r3, [r5, #4]
 8002f46:	6823      	ldr	r3, [r4, #0]
 8002f48:	e788      	b.n	8002e5c <HAL_RCC_OscConfig+0x6c>
 8002f4a:	2900      	cmp	r1, #0
 8002f4c:	d184      	bne.n	8002e58 <HAL_RCC_OscConfig+0x68>
 8002f4e:	2001      	movs	r0, #1
 8002f50:	bdf8      	pop	{r3, r4, r5, r6, r7, pc}
 8002f52:	2900      	cmp	r1, #0
 8002f54:	d0fb      	beq.n	8002f4e <HAL_RCC_OscConfig+0x15e>
 8002f56:	686a      	ldr	r2, [r5, #4]
 8002f58:	6963      	ldr	r3, [r4, #20]
 8002f5a:	4944      	ldr	r1, [pc, #272]	@ (800306c <HAL_RCC_OscConfig+0x27c>)
 8002f5c:	021b      	lsls	r3, r3, #8
 8002f5e:	400a      	ands	r2, r1
 8002f60:	4313      	orrs	r3, r2
 8002f62:	606b      	str	r3, [r5, #4]
 8002f64:	682b      	ldr	r3, [r5, #0]
 8002f66:	4a40      	ldr	r2, [pc, #256]	@ (8003068 <HAL_RCC_OscConfig+0x278>)
 8002f68:	4941      	ldr	r1, [pc, #260]	@ (8003070 <HAL_RCC_OscConfig+0x280>)
 8002f6a:	4013      	ands	r3, r2
 8002f6c:	6922      	ldr	r2, [r4, #16]
 8002f6e:	4313      	orrs	r3, r2
 8002f70:	602b      	str	r3, [r5, #0]
 8002f72:	682b      	ldr	r3, [r5, #0]
 8002f74:	4a3f      	ldr	r2, [pc, #252]	@ (8003074 <HAL_RCC_OscConfig+0x284>)
 8002f76:	049b      	lsls	r3, r3, #18
 8002f78:	0f5b      	lsrs	r3, r3, #29
 8002f7a:	40da      	lsrs	r2, r3
 8002f7c:	4b3e      	ldr	r3, [pc, #248]	@ (8003078 <HAL_RCC_OscConfig+0x288>)
 8002f7e:	600a      	str	r2, [r1, #0]
 8002f80:	6818      	ldr	r0, [r3, #0]
 8002f82:	f7fe fddf 	bl	8001b44 <HAL_InitTick>
 8002f86:	2800      	cmp	r0, #0
 8002f88:	d1e1      	bne.n	8002f4e <HAL_RCC_OscConfig+0x15e>
 8002f8a:	6823      	ldr	r3, [r4, #0]
 8002f8c:	e766      	b.n	8002e5c <HAL_RCC_OscConfig+0x6c>
 8002f8e:	682b      	ldr	r3, [r5, #0]
 8002f90:	430b      	orrs	r3, r1
 8002f92:	602b      	str	r3, [r5, #0]
 8002f94:	f7fe fe14 	bl	8001bc0 <HAL_GetTick>
 8002f98:	2680      	movs	r6, #128	@ 0x80
 8002f9a:	0005      	movs	r5, r0
 8002f9c:	4f2e      	ldr	r7, [pc, #184]	@ (8003058 <HAL_RCC_OscConfig+0x268>)
 8002f9e:	02b6      	lsls	r6, r6, #10
 8002fa0:	e004      	b.n	8002fac <HAL_RCC_OscConfig+0x1bc>
 8002fa2:	f7fe fe0d 	bl	8001bc0 <HAL_GetTick>
 8002fa6:	1b40      	subs	r0, r0, r5
 8002fa8:	2864      	cmp	r0, #100	@ 0x64
 8002faa:	d81b      	bhi.n	8002fe4 <HAL_RCC_OscConfig+0x1f4>
 8002fac:	683b      	ldr	r3, [r7, #0]
 8002fae:	4233      	tst	r3, r6
 8002fb0:	d0f7      	beq.n	8002fa2 <HAL_RCC_OscConfig+0x1b2>
 8002fb2:	6823      	ldr	r3, [r4, #0]
 8002fb4:	e750      	b.n	8002e58 <HAL_RCC_OscConfig+0x68>
 8002fb6:	2900      	cmp	r1, #0
 8002fb8:	d000      	beq.n	8002fbc <HAL_RCC_OscConfig+0x1cc>
 8002fba:	e76f      	b.n	8002e9c <HAL_RCC_OscConfig+0xac>
 8002fbc:	e7c7      	b.n	8002f4e <HAL_RCC_OscConfig+0x15e>
 8002fbe:	4303      	orrs	r3, r0
 8002fc0:	65eb      	str	r3, [r5, #92]	@ 0x5c
 8002fc2:	f7fe fdfd 	bl	8001bc0 <HAL_GetTick>
 8002fc6:	2502      	movs	r5, #2
 8002fc8:	0004      	movs	r4, r0
 8002fca:	4e23      	ldr	r6, [pc, #140]	@ (8003058 <HAL_RCC_OscConfig+0x268>)
 8002fcc:	4f25      	ldr	r7, [pc, #148]	@ (8003064 <HAL_RCC_OscConfig+0x274>)
 8002fce:	e004      	b.n	8002fda <HAL_RCC_OscConfig+0x1ea>
 8002fd0:	f7fe fdf6 	bl	8001bc0 <HAL_GetTick>
 8002fd4:	1b00      	subs	r0, r0, r4
 8002fd6:	42b8      	cmp	r0, r7
 8002fd8:	d804      	bhi.n	8002fe4 <HAL_RCC_OscConfig+0x1f4>
 8002fda:	6df3      	ldr	r3, [r6, #92]	@ 0x5c
 8002fdc:	421d      	tst	r5, r3
 8002fde:	d0f7      	beq.n	8002fd0 <HAL_RCC_OscConfig+0x1e0>
 8002fe0:	2000      	movs	r0, #0
 8002fe2:	e7b5      	b.n	8002f50 <HAL_RCC_OscConfig+0x160>
 8002fe4:	2003      	movs	r0, #3
 8002fe6:	e7b3      	b.n	8002f50 <HAL_RCC_OscConfig+0x160>
 8002fe8:	4a24      	ldr	r2, [pc, #144]	@ (800307c <HAL_RCC_OscConfig+0x28c>)
 8002fea:	2780      	movs	r7, #128	@ 0x80
 8002fec:	4013      	ands	r3, r2
 8002fee:	602b      	str	r3, [r5, #0]
 8002ff0:	f7fe fde6 	bl	8001bc0 <HAL_GetTick>
 8002ff4:	00ff      	lsls	r7, r7, #3
 8002ff6:	0006      	movs	r6, r0
 8002ff8:	e004      	b.n	8003004 <HAL_RCC_OscConfig+0x214>
 8002ffa:	f7fe fde1 	bl	8001bc0 <HAL_GetTick>
 8002ffe:	1b80      	subs	r0, r0, r6
 8003000:	2802      	cmp	r0, #2
 8003002:	d8ef      	bhi.n	8002fe4 <HAL_RCC_OscConfig+0x1f4>
 8003004:	682b      	ldr	r3, [r5, #0]
 8003006:	423b      	tst	r3, r7
 8003008:	d1f7      	bne.n	8002ffa <HAL_RCC_OscConfig+0x20a>
 800300a:	6823      	ldr	r3, [r4, #0]
 800300c:	e726      	b.n	8002e5c <HAL_RCC_OscConfig+0x6c>
 800300e:	4393      	bics	r3, r2
 8003010:	662b      	str	r3, [r5, #96]	@ 0x60
 8003012:	f7fe fdd5 	bl	8001bc0 <HAL_GetTick>
 8003016:	2702      	movs	r7, #2
 8003018:	0006      	movs	r6, r0
 800301a:	e004      	b.n	8003026 <HAL_RCC_OscConfig+0x236>
 800301c:	f7fe fdd0 	bl	8001bc0 <HAL_GetTick>
 8003020:	1b80      	subs	r0, r0, r6
 8003022:	2802      	cmp	r0, #2
 8003024:	d8de      	bhi.n	8002fe4 <HAL_RCC_OscConfig+0x1f4>
 8003026:	6e2b      	ldr	r3, [r5, #96]	@ 0x60
 8003028:	421f      	tst	r7, r3
 800302a:	d1f7      	bne.n	800301c <HAL_RCC_OscConfig+0x22c>
 800302c:	6823      	ldr	r3, [r4, #0]
 800302e:	e735      	b.n	8002e9c <HAL_RCC_OscConfig+0xac>
 8003030:	2280      	movs	r2, #128	@ 0x80
 8003032:	6829      	ldr	r1, [r5, #0]
 8003034:	02d2      	lsls	r2, r2, #11
 8003036:	430a      	orrs	r2, r1
 8003038:	602a      	str	r2, [r5, #0]
 800303a:	682a      	ldr	r2, [r5, #0]
 800303c:	4313      	orrs	r3, r2
 800303e:	602b      	str	r3, [r5, #0]
 8003040:	e7a8      	b.n	8002f94 <HAL_RCC_OscConfig+0x1a4>
 8003042:	4243      	negs	r3, r0
 8003044:	4158      	adcs	r0, r3
 8003046:	b2c0      	uxtb	r0, r0
 8003048:	e782      	b.n	8002f50 <HAL_RCC_OscConfig+0x160>
 800304a:	4313      	orrs	r3, r2
 800304c:	2201      	movs	r2, #1
 800304e:	65eb      	str	r3, [r5, #92]	@ 0x5c
 8003050:	6deb      	ldr	r3, [r5, #92]	@ 0x5c
 8003052:	4313      	orrs	r3, r2
 8003054:	65eb      	str	r3, [r5, #92]	@ 0x5c
 8003056:	e7b4      	b.n	8002fc2 <HAL_RCC_OscConfig+0x1d2>
 8003058:	40021000 	.word	0x40021000
 800305c:	fffeffff 	.word	0xfffeffff
 8003060:	fffbffff 	.word	0xfffbffff
 8003064:	00001388 	.word	0x00001388
 8003068:	ffffc7ff 	.word	0xffffc7ff
 800306c:	ffff80ff 	.word	0xffff80ff
 8003070:	20000004 	.word	0x20000004
 8003074:	02dc6c00 	.word	0x02dc6c00
 8003078:	2000000c 	.word	0x2000000c
 800307c:	fffffeff 	.word	0xfffffeff

08003080 <HAL_RCC_GetSysClockFreq>:
 8003080:	2038      	movs	r0, #56	@ 0x38
 8003082:	4b12      	ldr	r3, [pc, #72]	@ (80030cc <HAL_RCC_GetSysClockFreq+0x4c>)
 8003084:	689a      	ldr	r2, [r3, #8]
 8003086:	4210      	tst	r0, r2
 8003088:	d105      	bne.n	8003096 <HAL_RCC_GetSysClockFreq+0x16>
 800308a:	681b      	ldr	r3, [r3, #0]
 800308c:	4810      	ldr	r0, [pc, #64]	@ (80030d0 <HAL_RCC_GetSysClockFreq+0x50>)
 800308e:	049b      	lsls	r3, r3, #18
 8003090:	0f5b      	lsrs	r3, r3, #29
 8003092:	40d8      	lsrs	r0, r3
 8003094:	4770      	bx	lr
 8003096:	689a      	ldr	r2, [r3, #8]
 8003098:	4002      	ands	r2, r0
 800309a:	2a08      	cmp	r2, #8
 800309c:	d010      	beq.n	80030c0 <HAL_RCC_GetSysClockFreq+0x40>
 800309e:	689a      	ldr	r2, [r3, #8]
 80030a0:	4002      	ands	r2, r0
 80030a2:	2a20      	cmp	r2, #32
 80030a4:	d00e      	beq.n	80030c4 <HAL_RCC_GetSysClockFreq+0x44>
 80030a6:	689b      	ldr	r3, [r3, #8]
 80030a8:	4018      	ands	r0, r3
 80030aa:	3818      	subs	r0, #24
 80030ac:	1e43      	subs	r3, r0, #1
 80030ae:	4198      	sbcs	r0, r3
 80030b0:	4b08      	ldr	r3, [pc, #32]	@ (80030d4 <HAL_RCC_GetSysClockFreq+0x54>)
 80030b2:	4240      	negs	r0, r0
 80030b4:	4018      	ands	r0, r3
 80030b6:	23fa      	movs	r3, #250	@ 0xfa
 80030b8:	01db      	lsls	r3, r3, #7
 80030ba:	469c      	mov	ip, r3
 80030bc:	4460      	add	r0, ip
 80030be:	e7e9      	b.n	8003094 <HAL_RCC_GetSysClockFreq+0x14>
 80030c0:	4805      	ldr	r0, [pc, #20]	@ (80030d8 <HAL_RCC_GetSysClockFreq+0x58>)
 80030c2:	e7e7      	b.n	8003094 <HAL_RCC_GetSysClockFreq+0x14>
 80030c4:	2080      	movs	r0, #128	@ 0x80
 80030c6:	0200      	lsls	r0, r0, #8
 80030c8:	e7e4      	b.n	8003094 <HAL_RCC_GetSysClockFreq+0x14>
 80030ca:	46c0      	nop			@ (mov r8, r8)
 80030cc:	40021000 	.word	0x40021000
 80030d0:	02dc6c00 	.word	0x02dc6c00
 80030d4:	ffff8300 	.word	0xffff8300
 80030d8:	007a1200 	.word	0x007a1200

080030dc <HAL_RCC_ClockConfig>:
 80030dc:	b5f8      	push	{r3, r4, r5, r6, r7, lr}
 80030de:	46ce      	mov	lr, r9
 80030e0:	4647      	mov	r7, r8
 80030e2:	0005      	movs	r5, r0
 80030e4:	000c      	movs	r4, r1
 80030e6:	b580      	push	{r7, lr}
 80030e8:	2800      	cmp	r0, #0
 80030ea:	d060      	beq.n	80031ae <HAL_RCC_ClockConfig+0xd2>
 80030ec:	2207      	movs	r2, #7
 80030ee:	4e52      	ldr	r6, [pc, #328]	@ (8003238 <HAL_RCC_ClockConfig+0x15c>)
 80030f0:	6833      	ldr	r3, [r6, #0]
 80030f2:	4013      	ands	r3, r2
 80030f4:	428b      	cmp	r3, r1
 80030f6:	d35c      	bcc.n	80031b2 <HAL_RCC_ClockConfig+0xd6>
 80030f8:	682b      	ldr	r3, [r5, #0]
 80030fa:	079a      	lsls	r2, r3, #30
 80030fc:	d510      	bpl.n	8003120 <HAL_RCC_ClockConfig+0x44>
 80030fe:	075a      	lsls	r2, r3, #29
 8003100:	d507      	bpl.n	8003112 <HAL_RCC_ClockConfig+0x36>
 8003102:	484e      	ldr	r0, [pc, #312]	@ (800323c <HAL_RCC_ClockConfig+0x160>)
 8003104:	4a4e      	ldr	r2, [pc, #312]	@ (8003240 <HAL_RCC_ClockConfig+0x164>)
 8003106:	6881      	ldr	r1, [r0, #8]
 8003108:	4011      	ands	r1, r2
 800310a:	22b0      	movs	r2, #176	@ 0xb0
 800310c:	0112      	lsls	r2, r2, #4
 800310e:	430a      	orrs	r2, r1
 8003110:	6082      	str	r2, [r0, #8]
 8003112:	494a      	ldr	r1, [pc, #296]	@ (800323c <HAL_RCC_ClockConfig+0x160>)
 8003114:	484b      	ldr	r0, [pc, #300]	@ (8003244 <HAL_RCC_ClockConfig+0x168>)
 8003116:	688a      	ldr	r2, [r1, #8]
 8003118:	4002      	ands	r2, r0
 800311a:	68e8      	ldr	r0, [r5, #12]
 800311c:	4302      	orrs	r2, r0
 800311e:	608a      	str	r2, [r1, #8]
 8003120:	07db      	lsls	r3, r3, #31
 8003122:	d522      	bpl.n	800316a <HAL_RCC_ClockConfig+0x8e>
 8003124:	686a      	ldr	r2, [r5, #4]
 8003126:	4b45      	ldr	r3, [pc, #276]	@ (800323c <HAL_RCC_ClockConfig+0x160>)
 8003128:	2a01      	cmp	r2, #1
 800312a:	d03d      	beq.n	80031a8 <HAL_RCC_ClockConfig+0xcc>
 800312c:	2a00      	cmp	r2, #0
 800312e:	d15f      	bne.n	80031f0 <HAL_RCC_ClockConfig+0x114>
 8003130:	681b      	ldr	r3, [r3, #0]
 8003132:	055b      	lsls	r3, r3, #21
 8003134:	d53b      	bpl.n	80031ae <HAL_RCC_ClockConfig+0xd2>
 8003136:	2107      	movs	r1, #7
 8003138:	4e40      	ldr	r6, [pc, #256]	@ (800323c <HAL_RCC_ClockConfig+0x160>)
 800313a:	68b3      	ldr	r3, [r6, #8]
 800313c:	438b      	bics	r3, r1
 800313e:	4313      	orrs	r3, r2
 8003140:	60b3      	str	r3, [r6, #8]
 8003142:	f7fe fd3d 	bl	8001bc0 <HAL_GetTick>
 8003146:	2338      	movs	r3, #56	@ 0x38
 8003148:	4698      	mov	r8, r3
 800314a:	4b3f      	ldr	r3, [pc, #252]	@ (8003248 <HAL_RCC_ClockConfig+0x16c>)
 800314c:	0007      	movs	r7, r0
 800314e:	4699      	mov	r9, r3
 8003150:	e004      	b.n	800315c <HAL_RCC_ClockConfig+0x80>
 8003152:	f7fe fd35 	bl	8001bc0 <HAL_GetTick>
 8003156:	1bc0      	subs	r0, r0, r7
 8003158:	4548      	cmp	r0, r9
 800315a:	d83f      	bhi.n	80031dc <HAL_RCC_ClockConfig+0x100>
 800315c:	4643      	mov	r3, r8
 800315e:	68b2      	ldr	r2, [r6, #8]
 8003160:	401a      	ands	r2, r3
 8003162:	686b      	ldr	r3, [r5, #4]
 8003164:	00db      	lsls	r3, r3, #3
 8003166:	429a      	cmp	r2, r3
 8003168:	d1f3      	bne.n	8003152 <HAL_RCC_ClockConfig+0x76>
 800316a:	2207      	movs	r2, #7
 800316c:	4e32      	ldr	r6, [pc, #200]	@ (8003238 <HAL_RCC_ClockConfig+0x15c>)
 800316e:	6833      	ldr	r3, [r6, #0]
 8003170:	4013      	ands	r3, r2
 8003172:	42a3      	cmp	r3, r4
 8003174:	d843      	bhi.n	80031fe <HAL_RCC_ClockConfig+0x122>
 8003176:	682b      	ldr	r3, [r5, #0]
 8003178:	075b      	lsls	r3, r3, #29
 800317a:	d431      	bmi.n	80031e0 <HAL_RCC_ClockConfig+0x104>
 800317c:	f7ff ff80 	bl	8003080 <HAL_RCC_GetSysClockFreq>
 8003180:	4b2e      	ldr	r3, [pc, #184]	@ (800323c <HAL_RCC_ClockConfig+0x160>)
 8003182:	4a32      	ldr	r2, [pc, #200]	@ (800324c <HAL_RCC_ClockConfig+0x170>)
 8003184:	689b      	ldr	r3, [r3, #8]
 8003186:	4932      	ldr	r1, [pc, #200]	@ (8003250 <HAL_RCC_ClockConfig+0x174>)
 8003188:	051b      	lsls	r3, r3, #20
 800318a:	0f1b      	lsrs	r3, r3, #28
 800318c:	009b      	lsls	r3, r3, #2
 800318e:	589b      	ldr	r3, [r3, r2]
 8003190:	221f      	movs	r2, #31
 8003192:	4013      	ands	r3, r2
 8003194:	40d8      	lsrs	r0, r3
 8003196:	4b2f      	ldr	r3, [pc, #188]	@ (8003254 <HAL_RCC_ClockConfig+0x178>)
 8003198:	6008      	str	r0, [r1, #0]
 800319a:	6818      	ldr	r0, [r3, #0]
 800319c:	f7fe fcd2 	bl	8001b44 <HAL_InitTick>
 80031a0:	bcc0      	pop	{r6, r7}
 80031a2:	46b9      	mov	r9, r7
 80031a4:	46b0      	mov	r8, r6
 80031a6:	bdf8      	pop	{r3, r4, r5, r6, r7, pc}
 80031a8:	681b      	ldr	r3, [r3, #0]
 80031aa:	039b      	lsls	r3, r3, #14
 80031ac:	d4c3      	bmi.n	8003136 <HAL_RCC_ClockConfig+0x5a>
 80031ae:	2001      	movs	r0, #1
 80031b0:	e7f6      	b.n	80031a0 <HAL_RCC_ClockConfig+0xc4>
 80031b2:	6833      	ldr	r3, [r6, #0]
 80031b4:	4393      	bics	r3, r2
 80031b6:	430b      	orrs	r3, r1
 80031b8:	6033      	str	r3, [r6, #0]
 80031ba:	f7fe fd01 	bl	8001bc0 <HAL_GetTick>
 80031be:	2307      	movs	r3, #7
 80031c0:	4698      	mov	r8, r3
 80031c2:	4b21      	ldr	r3, [pc, #132]	@ (8003248 <HAL_RCC_ClockConfig+0x16c>)
 80031c4:	0007      	movs	r7, r0
 80031c6:	4699      	mov	r9, r3
 80031c8:	4642      	mov	r2, r8
 80031ca:	6833      	ldr	r3, [r6, #0]
 80031cc:	4013      	ands	r3, r2
 80031ce:	42a3      	cmp	r3, r4
 80031d0:	d092      	beq.n	80030f8 <HAL_RCC_ClockConfig+0x1c>
 80031d2:	f7fe fcf5 	bl	8001bc0 <HAL_GetTick>
 80031d6:	1bc0      	subs	r0, r0, r7
 80031d8:	4548      	cmp	r0, r9
 80031da:	d9f5      	bls.n	80031c8 <HAL_RCC_ClockConfig+0xec>
 80031dc:	2003      	movs	r0, #3
 80031de:	e7df      	b.n	80031a0 <HAL_RCC_ClockConfig+0xc4>
 80031e0:	4a16      	ldr	r2, [pc, #88]	@ (800323c <HAL_RCC_ClockConfig+0x160>)
 80031e2:	491d      	ldr	r1, [pc, #116]	@ (8003258 <HAL_RCC_ClockConfig+0x17c>)
 80031e4:	6893      	ldr	r3, [r2, #8]
 80031e6:	400b      	ands	r3, r1
 80031e8:	6929      	ldr	r1, [r5, #16]
 80031ea:	430b      	orrs	r3, r1
 80031ec:	6093      	str	r3, [r2, #8]
 80031ee:	e7c5      	b.n	800317c <HAL_RCC_ClockConfig+0xa0>
 80031f0:	2a03      	cmp	r2, #3
 80031f2:	d01b      	beq.n	800322c <HAL_RCC_ClockConfig+0x150>
 80031f4:	6ddb      	ldr	r3, [r3, #92]	@ 0x5c
 80031f6:	079b      	lsls	r3, r3, #30
 80031f8:	d49d      	bmi.n	8003136 <HAL_RCC_ClockConfig+0x5a>
 80031fa:	2001      	movs	r0, #1
 80031fc:	e7d0      	b.n	80031a0 <HAL_RCC_ClockConfig+0xc4>
 80031fe:	6833      	ldr	r3, [r6, #0]
 8003200:	4393      	bics	r3, r2
 8003202:	4323      	orrs	r3, r4
 8003204:	6033      	str	r3, [r6, #0]
 8003206:	f7fe fcdb 	bl	8001bc0 <HAL_GetTick>
 800320a:	2307      	movs	r3, #7
 800320c:	4698      	mov	r8, r3
 800320e:	4b0e      	ldr	r3, [pc, #56]	@ (8003248 <HAL_RCC_ClockConfig+0x16c>)
 8003210:	0007      	movs	r7, r0
 8003212:	4699      	mov	r9, r3
 8003214:	4642      	mov	r2, r8
 8003216:	6833      	ldr	r3, [r6, #0]
 8003218:	4013      	ands	r3, r2
 800321a:	42a3      	cmp	r3, r4
 800321c:	d0ab      	beq.n	8003176 <HAL_RCC_ClockConfig+0x9a>
 800321e:	f7fe fccf 	bl	8001bc0 <HAL_GetTick>
 8003222:	1bc0      	subs	r0, r0, r7
 8003224:	4548      	cmp	r0, r9
 8003226:	d9f5      	bls.n	8003214 <HAL_RCC_ClockConfig+0x138>
 8003228:	2003      	movs	r0, #3
 800322a:	e7b9      	b.n	80031a0 <HAL_RCC_ClockConfig+0xc4>
 800322c:	6e1b      	ldr	r3, [r3, #96]	@ 0x60
 800322e:	079b      	lsls	r3, r3, #30
 8003230:	d500      	bpl.n	8003234 <HAL_RCC_ClockConfig+0x158>
 8003232:	e780      	b.n	8003136 <HAL_RCC_ClockConfig+0x5a>
 8003234:	2001      	movs	r0, #1
 8003236:	e7b3      	b.n	80031a0 <HAL_RCC_ClockConfig+0xc4>
 8003238:	40022000 	.word	0x40022000
 800323c:	40021000 	.word	0x40021000
 8003240:	ffff84ff 	.word	0xffff84ff
 8003244:	fffff0ff 	.word	0xfffff0ff
 8003248:	00001388 	.word	0x00001388
 800324c:	0800386c 	.word	0x0800386c
 8003250:	20000004 	.word	0x20000004
 8003254:	2000000c 	.word	0x2000000c
 8003258:	ffff8fff 	.word	0xffff8fff

0800325c <HAL_RCCEx_PeriphCLKConfig>:
 800325c:	b5f0      	push	{r4, r5, r6, r7, lr}
 800325e:	46ce      	mov	lr, r9
 8003260:	4647      	mov	r7, r8
 8003262:	b580      	push	{r7, lr}
 8003264:	6803      	ldr	r3, [r0, #0]
 8003266:	0004      	movs	r4, r0
 8003268:	b083      	sub	sp, #12
 800326a:	065a      	lsls	r2, r3, #25
 800326c:	d432      	bmi.n	80032d4 <HAL_RCCEx_PeriphCLKConfig+0x78>
 800326e:	2000      	movs	r0, #0
 8003270:	07da      	lsls	r2, r3, #31
 8003272:	d506      	bpl.n	8003282 <HAL_RCCEx_PeriphCLKConfig+0x26>
 8003274:	2503      	movs	r5, #3
 8003276:	4951      	ldr	r1, [pc, #324]	@ (80033bc <HAL_RCCEx_PeriphCLKConfig+0x160>)
 8003278:	6d4a      	ldr	r2, [r1, #84]	@ 0x54
 800327a:	43aa      	bics	r2, r5
 800327c:	68a5      	ldr	r5, [r4, #8]
 800327e:	432a      	orrs	r2, r5
 8003280:	654a      	str	r2, [r1, #84]	@ 0x54
 8003282:	079a      	lsls	r2, r3, #30
 8003284:	d506      	bpl.n	8003294 <HAL_RCCEx_PeriphCLKConfig+0x38>
 8003286:	494d      	ldr	r1, [pc, #308]	@ (80033bc <HAL_RCCEx_PeriphCLKConfig+0x160>)
 8003288:	4d4d      	ldr	r5, [pc, #308]	@ (80033c0 <HAL_RCCEx_PeriphCLKConfig+0x164>)
 800328a:	6d4a      	ldr	r2, [r1, #84]	@ 0x54
 800328c:	402a      	ands	r2, r5
 800328e:	68e5      	ldr	r5, [r4, #12]
 8003290:	432a      	orrs	r2, r5
 8003292:	654a      	str	r2, [r1, #84]	@ 0x54
 8003294:	069a      	lsls	r2, r3, #26
 8003296:	d506      	bpl.n	80032a6 <HAL_RCCEx_PeriphCLKConfig+0x4a>
 8003298:	4948      	ldr	r1, [pc, #288]	@ (80033bc <HAL_RCCEx_PeriphCLKConfig+0x160>)
 800329a:	6965      	ldr	r5, [r4, #20]
 800329c:	6d4a      	ldr	r2, [r1, #84]	@ 0x54
 800329e:	0092      	lsls	r2, r2, #2
 80032a0:	0892      	lsrs	r2, r2, #2
 80032a2:	432a      	orrs	r2, r5
 80032a4:	654a      	str	r2, [r1, #84]	@ 0x54
 80032a6:	075a      	lsls	r2, r3, #29
 80032a8:	d506      	bpl.n	80032b8 <HAL_RCCEx_PeriphCLKConfig+0x5c>
 80032aa:	4944      	ldr	r1, [pc, #272]	@ (80033bc <HAL_RCCEx_PeriphCLKConfig+0x160>)
 80032ac:	4d45      	ldr	r5, [pc, #276]	@ (80033c4 <HAL_RCCEx_PeriphCLKConfig+0x168>)
 80032ae:	6d4a      	ldr	r2, [r1, #84]	@ 0x54
 80032b0:	402a      	ands	r2, r5
 80032b2:	6925      	ldr	r5, [r4, #16]
 80032b4:	432a      	orrs	r2, r5
 80032b6:	654a      	str	r2, [r1, #84]	@ 0x54
 80032b8:	061b      	lsls	r3, r3, #24
 80032ba:	d506      	bpl.n	80032ca <HAL_RCCEx_PeriphCLKConfig+0x6e>
 80032bc:	21e0      	movs	r1, #224	@ 0xe0
 80032be:	4a3f      	ldr	r2, [pc, #252]	@ (80033bc <HAL_RCCEx_PeriphCLKConfig+0x160>)
 80032c0:	6813      	ldr	r3, [r2, #0]
 80032c2:	438b      	bics	r3, r1
 80032c4:	6861      	ldr	r1, [r4, #4]
 80032c6:	430b      	orrs	r3, r1
 80032c8:	6013      	str	r3, [r2, #0]
 80032ca:	b003      	add	sp, #12
 80032cc:	bcc0      	pop	{r6, r7}
 80032ce:	46b9      	mov	r9, r7
 80032d0:	46b0      	mov	r8, r6
 80032d2:	bdf0      	pop	{r4, r5, r6, r7, pc}
 80032d4:	2180      	movs	r1, #128	@ 0x80
 80032d6:	4a39      	ldr	r2, [pc, #228]	@ (80033bc <HAL_RCCEx_PeriphCLKConfig+0x160>)
 80032d8:	0549      	lsls	r1, r1, #21
 80032da:	6bd5      	ldr	r5, [r2, #60]	@ 0x3c
 80032dc:	6980      	ldr	r0, [r0, #24]
 80032de:	420d      	tst	r5, r1
 80032e0:	d11d      	bne.n	800331e <HAL_RCCEx_PeriphCLKConfig+0xc2>
 80032e2:	6bd5      	ldr	r5, [r2, #60]	@ 0x3c
 80032e4:	430d      	orrs	r5, r1
 80032e6:	63d5      	str	r5, [r2, #60]	@ 0x3c
 80032e8:	6bd5      	ldr	r5, [r2, #60]	@ 0x3c
 80032ea:	4029      	ands	r1, r5
 80032ec:	9101      	str	r1, [sp, #4]
 80032ee:	9901      	ldr	r1, [sp, #4]
 80032f0:	6dd5      	ldr	r5, [r2, #92]	@ 0x5c
 80032f2:	21c0      	movs	r1, #192	@ 0xc0
 80032f4:	002f      	movs	r7, r5
 80032f6:	0089      	lsls	r1, r1, #2
 80032f8:	400f      	ands	r7, r1
 80032fa:	420d      	tst	r5, r1
 80032fc:	d04e      	beq.n	800339c <HAL_RCCEx_PeriphCLKConfig+0x140>
 80032fe:	2101      	movs	r1, #1
 8003300:	4689      	mov	r9, r1
 8003302:	4287      	cmp	r7, r0
 8003304:	d116      	bne.n	8003334 <HAL_RCCEx_PeriphCLKConfig+0xd8>
 8003306:	6dd1      	ldr	r1, [r2, #92]	@ 0x5c
 8003308:	482f      	ldr	r0, [pc, #188]	@ (80033c8 <HAL_RCCEx_PeriphCLKConfig+0x16c>)
 800330a:	4001      	ands	r1, r0
 800330c:	4339      	orrs	r1, r7
 800330e:	65d1      	str	r1, [r2, #92]	@ 0x5c
 8003310:	2000      	movs	r0, #0
 8003312:	492a      	ldr	r1, [pc, #168]	@ (80033bc <HAL_RCCEx_PeriphCLKConfig+0x160>)
 8003314:	4d2d      	ldr	r5, [pc, #180]	@ (80033cc <HAL_RCCEx_PeriphCLKConfig+0x170>)
 8003316:	6bca      	ldr	r2, [r1, #60]	@ 0x3c
 8003318:	402a      	ands	r2, r5
 800331a:	63ca      	str	r2, [r1, #60]	@ 0x3c
 800331c:	e7a8      	b.n	8003270 <HAL_RCCEx_PeriphCLKConfig+0x14>
 800331e:	6dd5      	ldr	r5, [r2, #92]	@ 0x5c
 8003320:	21c0      	movs	r1, #192	@ 0xc0
 8003322:	002f      	movs	r7, r5
 8003324:	0089      	lsls	r1, r1, #2
 8003326:	400f      	ands	r7, r1
 8003328:	420d      	tst	r5, r1
 800332a:	d031      	beq.n	8003390 <HAL_RCCEx_PeriphCLKConfig+0x134>
 800332c:	2100      	movs	r1, #0
 800332e:	4689      	mov	r9, r1
 8003330:	4287      	cmp	r7, r0
 8003332:	d039      	beq.n	80033a8 <HAL_RCCEx_PeriphCLKConfig+0x14c>
 8003334:	2780      	movs	r7, #128	@ 0x80
 8003336:	4d21      	ldr	r5, [pc, #132]	@ (80033bc <HAL_RCCEx_PeriphCLKConfig+0x160>)
 8003338:	027f      	lsls	r7, r7, #9
 800333a:	6dea      	ldr	r2, [r5, #92]	@ 0x5c
 800333c:	6dee      	ldr	r6, [r5, #92]	@ 0x5c
 800333e:	4922      	ldr	r1, [pc, #136]	@ (80033c8 <HAL_RCCEx_PeriphCLKConfig+0x16c>)
 8003340:	4337      	orrs	r7, r6
 8003342:	65ef      	str	r7, [r5, #92]	@ 0x5c
 8003344:	6def      	ldr	r7, [r5, #92]	@ 0x5c
 8003346:	4e22      	ldr	r6, [pc, #136]	@ (80033d0 <HAL_RCCEx_PeriphCLKConfig+0x174>)
 8003348:	4011      	ands	r1, r2
 800334a:	4037      	ands	r7, r6
 800334c:	65ef      	str	r7, [r5, #92]	@ 0x5c
 800334e:	65e9      	str	r1, [r5, #92]	@ 0x5c
 8003350:	07d2      	lsls	r2, r2, #31
 8003352:	d511      	bpl.n	8003378 <HAL_RCCEx_PeriphCLKConfig+0x11c>
 8003354:	f7fe fc34 	bl	8001bc0 <HAL_GetTick>
 8003358:	2302      	movs	r3, #2
 800335a:	0007      	movs	r7, r0
 800335c:	4698      	mov	r8, r3
 800335e:	4e1d      	ldr	r6, [pc, #116]	@ (80033d4 <HAL_RCCEx_PeriphCLKConfig+0x178>)
 8003360:	e004      	b.n	800336c <HAL_RCCEx_PeriphCLKConfig+0x110>
 8003362:	f7fe fc2d 	bl	8001bc0 <HAL_GetTick>
 8003366:	1bc0      	subs	r0, r0, r7
 8003368:	42b0      	cmp	r0, r6
 800336a:	d823      	bhi.n	80033b4 <HAL_RCCEx_PeriphCLKConfig+0x158>
 800336c:	4642      	mov	r2, r8
 800336e:	6deb      	ldr	r3, [r5, #92]	@ 0x5c
 8003370:	421a      	tst	r2, r3
 8003372:	d0f6      	beq.n	8003362 <HAL_RCCEx_PeriphCLKConfig+0x106>
 8003374:	6823      	ldr	r3, [r4, #0]
 8003376:	69a0      	ldr	r0, [r4, #24]
 8003378:	4910      	ldr	r1, [pc, #64]	@ (80033bc <HAL_RCCEx_PeriphCLKConfig+0x160>)
 800337a:	4d13      	ldr	r5, [pc, #76]	@ (80033c8 <HAL_RCCEx_PeriphCLKConfig+0x16c>)
 800337c:	6dca      	ldr	r2, [r1, #92]	@ 0x5c
 800337e:	402a      	ands	r2, r5
 8003380:	4302      	orrs	r2, r0
 8003382:	2000      	movs	r0, #0
 8003384:	65ca      	str	r2, [r1, #92]	@ 0x5c
 8003386:	464a      	mov	r2, r9
 8003388:	2a01      	cmp	r2, #1
 800338a:	d000      	beq.n	800338e <HAL_RCCEx_PeriphCLKConfig+0x132>
 800338c:	e770      	b.n	8003270 <HAL_RCCEx_PeriphCLKConfig+0x14>
 800338e:	e7c0      	b.n	8003312 <HAL_RCCEx_PeriphCLKConfig+0xb6>
 8003390:	6dd1      	ldr	r1, [r2, #92]	@ 0x5c
 8003392:	4d0d      	ldr	r5, [pc, #52]	@ (80033c8 <HAL_RCCEx_PeriphCLKConfig+0x16c>)
 8003394:	4029      	ands	r1, r5
 8003396:	4301      	orrs	r1, r0
 8003398:	65d1      	str	r1, [r2, #92]	@ 0x5c
 800339a:	e768      	b.n	800326e <HAL_RCCEx_PeriphCLKConfig+0x12>
 800339c:	6dd1      	ldr	r1, [r2, #92]	@ 0x5c
 800339e:	4d0a      	ldr	r5, [pc, #40]	@ (80033c8 <HAL_RCCEx_PeriphCLKConfig+0x16c>)
 80033a0:	4029      	ands	r1, r5
 80033a2:	4301      	orrs	r1, r0
 80033a4:	65d1      	str	r1, [r2, #92]	@ 0x5c
 80033a6:	e7b3      	b.n	8003310 <HAL_RCCEx_PeriphCLKConfig+0xb4>
 80033a8:	6dd1      	ldr	r1, [r2, #92]	@ 0x5c
 80033aa:	4807      	ldr	r0, [pc, #28]	@ (80033c8 <HAL_RCCEx_PeriphCLKConfig+0x16c>)
 80033ac:	4001      	ands	r1, r0
 80033ae:	4339      	orrs	r1, r7
 80033b0:	65d1      	str	r1, [r2, #92]	@ 0x5c
 80033b2:	e75c      	b.n	800326e <HAL_RCCEx_PeriphCLKConfig+0x12>
 80033b4:	2003      	movs	r0, #3
 80033b6:	6823      	ldr	r3, [r4, #0]
 80033b8:	e7e5      	b.n	8003386 <HAL_RCCEx_PeriphCLKConfig+0x12a>
 80033ba:	46c0      	nop			@ (mov r8, r8)
 80033bc:	40021000 	.word	0x40021000
 80033c0:	ffffcfff 	.word	0xffffcfff
 80033c4:	ffff3fff 	.word	0xffff3fff
 80033c8:	fffffcff 	.word	0xfffffcff
 80033cc:	efffffff 	.word	0xefffffff
 80033d0:	fffeffff 	.word	0xfffeffff
 80033d4:	00001388 	.word	0x00001388

080033d8 <HAL_TIM_Base_Start>:
 80033d8:	213d      	movs	r1, #61	@ 0x3d
 80033da:	b510      	push	{r4, lr}
 80033dc:	5c42      	ldrb	r2, [r0, r1]
 80033de:	0003      	movs	r3, r0
 80033e0:	b2d4      	uxtb	r4, r2
 80033e2:	2001      	movs	r0, #1
 80033e4:	2a01      	cmp	r2, #1
 80033e6:	d10c      	bne.n	8003402 <HAL_TIM_Base_Start+0x2a>
 80033e8:	3201      	adds	r2, #1
 80033ea:	545a      	strb	r2, [r3, r1]
 80033ec:	681b      	ldr	r3, [r3, #0]
 80033ee:	4a0c      	ldr	r2, [pc, #48]	@ (8003420 <HAL_TIM_Base_Start+0x48>)
 80033f0:	4293      	cmp	r3, r2
 80033f2:	d007      	beq.n	8003404 <HAL_TIM_Base_Start+0x2c>
 80033f4:	4a0b      	ldr	r2, [pc, #44]	@ (8003424 <HAL_TIM_Base_Start+0x4c>)
 80033f6:	4293      	cmp	r3, r2
 80033f8:	d004      	beq.n	8003404 <HAL_TIM_Base_Start+0x2c>
 80033fa:	681a      	ldr	r2, [r3, #0]
 80033fc:	4322      	orrs	r2, r4
 80033fe:	601a      	str	r2, [r3, #0]
 8003400:	2000      	movs	r0, #0
 8003402:	bd10      	pop	{r4, pc}
 8003404:	689a      	ldr	r2, [r3, #8]
 8003406:	4908      	ldr	r1, [pc, #32]	@ (8003428 <HAL_TIM_Base_Start+0x50>)
 8003408:	400a      	ands	r2, r1
 800340a:	2a06      	cmp	r2, #6
 800340c:	d0f8      	beq.n	8003400 <HAL_TIM_Base_Start+0x28>
 800340e:	3907      	subs	r1, #7
 8003410:	428a      	cmp	r2, r1
 8003412:	d0f5      	beq.n	8003400 <HAL_TIM_Base_Start+0x28>
 8003414:	2101      	movs	r1, #1
 8003416:	681a      	ldr	r2, [r3, #0]
 8003418:	2000      	movs	r0, #0
 800341a:	430a      	orrs	r2, r1
 800341c:	601a      	str	r2, [r3, #0]
 800341e:	e7f0      	b.n	8003402 <HAL_TIM_Base_Start+0x2a>
 8003420:	40012c00 	.word	0x40012c00
 8003424:	40000400 	.word	0x40000400
 8003428:	00010007 	.word	0x00010007

0800342c <HAL_TIM_ConfigClockSource>:
 800342c:	223c      	movs	r2, #60	@ 0x3c
 800342e:	b570      	push	{r4, r5, r6, lr}
 8003430:	0003      	movs	r3, r0
 8003432:	5c80      	ldrb	r0, [r0, r2]
 8003434:	2801      	cmp	r0, #1
 8003436:	d100      	bne.n	800343a <HAL_TIM_ConfigClockSource+0xe>
 8003438:	e06f      	b.n	800351a <HAL_TIM_ConfigClockSource+0xee>
 800343a:	2401      	movs	r4, #1
 800343c:	2002      	movs	r0, #2
 800343e:	549c      	strb	r4, [r3, r2]
 8003440:	3201      	adds	r2, #1
 8003442:	5498      	strb	r0, [r3, r2]
 8003444:	681a      	ldr	r2, [r3, #0]
 8003446:	4d4e      	ldr	r5, [pc, #312]	@ (8003580 <HAL_TIM_ConfigClockSource+0x154>)
 8003448:	6890      	ldr	r0, [r2, #8]
 800344a:	4028      	ands	r0, r5
 800344c:	6090      	str	r0, [r2, #8]
 800344e:	6808      	ldr	r0, [r1, #0]
 8003450:	2860      	cmp	r0, #96	@ 0x60
 8003452:	d100      	bne.n	8003456 <HAL_TIM_ConfigClockSource+0x2a>
 8003454:	e07a      	b.n	800354c <HAL_TIM_ConfigClockSource+0x120>
 8003456:	d80b      	bhi.n	8003470 <HAL_TIM_ConfigClockSource+0x44>
 8003458:	2840      	cmp	r0, #64	@ 0x40
 800345a:	d060      	beq.n	800351e <HAL_TIM_ConfigClockSource+0xf2>
 800345c:	d829      	bhi.n	80034b2 <HAL_TIM_ConfigClockSource+0x86>
 800345e:	2820      	cmp	r0, #32
 8003460:	d053      	beq.n	800350a <HAL_TIM_ConfigClockSource+0xde>
 8003462:	d850      	bhi.n	8003506 <HAL_TIM_ConfigClockSource+0xda>
 8003464:	2110      	movs	r1, #16
 8003466:	0004      	movs	r4, r0
 8003468:	438c      	bics	r4, r1
 800346a:	d04e      	beq.n	800350a <HAL_TIM_ConfigClockSource+0xde>
 800346c:	2001      	movs	r0, #1
 800346e:	e019      	b.n	80034a4 <HAL_TIM_ConfigClockSource+0x78>
 8003470:	2480      	movs	r4, #128	@ 0x80
 8003472:	0164      	lsls	r4, r4, #5
 8003474:	42a0      	cmp	r0, r4
 8003476:	d014      	beq.n	80034a2 <HAL_TIM_ConfigClockSource+0x76>
 8003478:	2480      	movs	r4, #128	@ 0x80
 800347a:	01a4      	lsls	r4, r4, #6
 800347c:	42a0      	cmp	r0, r4
 800347e:	d031      	beq.n	80034e4 <HAL_TIM_ConfigClockSource+0xb8>
 8003480:	2870      	cmp	r0, #112	@ 0x70
 8003482:	d1f3      	bne.n	800346c <HAL_TIM_ConfigClockSource+0x40>
 8003484:	6894      	ldr	r4, [r2, #8]
 8003486:	483f      	ldr	r0, [pc, #252]	@ (8003584 <HAL_TIM_ConfigClockSource+0x158>)
 8003488:	684d      	ldr	r5, [r1, #4]
 800348a:	4004      	ands	r4, r0
 800348c:	6888      	ldr	r0, [r1, #8]
 800348e:	68c9      	ldr	r1, [r1, #12]
 8003490:	4328      	orrs	r0, r5
 8003492:	0209      	lsls	r1, r1, #8
 8003494:	4301      	orrs	r1, r0
 8003496:	2077      	movs	r0, #119	@ 0x77
 8003498:	4321      	orrs	r1, r4
 800349a:	6091      	str	r1, [r2, #8]
 800349c:	6891      	ldr	r1, [r2, #8]
 800349e:	4301      	orrs	r1, r0
 80034a0:	6091      	str	r1, [r2, #8]
 80034a2:	2000      	movs	r0, #0
 80034a4:	223d      	movs	r2, #61	@ 0x3d
 80034a6:	2101      	movs	r1, #1
 80034a8:	5499      	strb	r1, [r3, r2]
 80034aa:	2100      	movs	r1, #0
 80034ac:	3a01      	subs	r2, #1
 80034ae:	5499      	strb	r1, [r3, r2]
 80034b0:	bd70      	pop	{r4, r5, r6, pc}
 80034b2:	2850      	cmp	r0, #80	@ 0x50
 80034b4:	d1da      	bne.n	800346c <HAL_TIM_ConfigClockSource+0x40>
 80034b6:	6a15      	ldr	r5, [r2, #32]
 80034b8:	6a16      	ldr	r6, [r2, #32]
 80034ba:	6848      	ldr	r0, [r1, #4]
 80034bc:	43a6      	bics	r6, r4
 80034be:	68c9      	ldr	r1, [r1, #12]
 80034c0:	6216      	str	r6, [r2, #32]
 80034c2:	26f0      	movs	r6, #240	@ 0xf0
 80034c4:	6994      	ldr	r4, [r2, #24]
 80034c6:	0109      	lsls	r1, r1, #4
 80034c8:	43b4      	bics	r4, r6
 80034ca:	4321      	orrs	r1, r4
 80034cc:	240a      	movs	r4, #10
 80034ce:	43a5      	bics	r5, r4
 80034d0:	4328      	orrs	r0, r5
 80034d2:	6191      	str	r1, [r2, #24]
 80034d4:	6210      	str	r0, [r2, #32]
 80034d6:	6891      	ldr	r1, [r2, #8]
 80034d8:	482b      	ldr	r0, [pc, #172]	@ (8003588 <HAL_TIM_ConfigClockSource+0x15c>)
 80034da:	4001      	ands	r1, r0
 80034dc:	2057      	movs	r0, #87	@ 0x57
 80034de:	4301      	orrs	r1, r0
 80034e0:	6091      	str	r1, [r2, #8]
 80034e2:	e7de      	b.n	80034a2 <HAL_TIM_ConfigClockSource+0x76>
 80034e4:	6894      	ldr	r4, [r2, #8]
 80034e6:	4827      	ldr	r0, [pc, #156]	@ (8003584 <HAL_TIM_ConfigClockSource+0x158>)
 80034e8:	684d      	ldr	r5, [r1, #4]
 80034ea:	4004      	ands	r4, r0
 80034ec:	6888      	ldr	r0, [r1, #8]
 80034ee:	68c9      	ldr	r1, [r1, #12]
 80034f0:	4328      	orrs	r0, r5
 80034f2:	0209      	lsls	r1, r1, #8
 80034f4:	4301      	orrs	r1, r0
 80034f6:	4321      	orrs	r1, r4
 80034f8:	6091      	str	r1, [r2, #8]
 80034fa:	2180      	movs	r1, #128	@ 0x80
 80034fc:	6890      	ldr	r0, [r2, #8]
 80034fe:	01c9      	lsls	r1, r1, #7
 8003500:	4301      	orrs	r1, r0
 8003502:	6091      	str	r1, [r2, #8]
 8003504:	e7cd      	b.n	80034a2 <HAL_TIM_ConfigClockSource+0x76>
 8003506:	2830      	cmp	r0, #48	@ 0x30
 8003508:	d1b0      	bne.n	800346c <HAL_TIM_ConfigClockSource+0x40>
 800350a:	6891      	ldr	r1, [r2, #8]
 800350c:	4c1e      	ldr	r4, [pc, #120]	@ (8003588 <HAL_TIM_ConfigClockSource+0x15c>)
 800350e:	4021      	ands	r1, r4
 8003510:	4301      	orrs	r1, r0
 8003512:	2007      	movs	r0, #7
 8003514:	4301      	orrs	r1, r0
 8003516:	6091      	str	r1, [r2, #8]
 8003518:	e7c3      	b.n	80034a2 <HAL_TIM_ConfigClockSource+0x76>
 800351a:	2002      	movs	r0, #2
 800351c:	e7c8      	b.n	80034b0 <HAL_TIM_ConfigClockSource+0x84>
 800351e:	6a15      	ldr	r5, [r2, #32]
 8003520:	6a16      	ldr	r6, [r2, #32]
 8003522:	6848      	ldr	r0, [r1, #4]
 8003524:	43a6      	bics	r6, r4
 8003526:	68c9      	ldr	r1, [r1, #12]
 8003528:	6216      	str	r6, [r2, #32]
 800352a:	26f0      	movs	r6, #240	@ 0xf0
 800352c:	6994      	ldr	r4, [r2, #24]
 800352e:	0109      	lsls	r1, r1, #4
 8003530:	43b4      	bics	r4, r6
 8003532:	4321      	orrs	r1, r4
 8003534:	240a      	movs	r4, #10
 8003536:	43a5      	bics	r5, r4
 8003538:	4328      	orrs	r0, r5
 800353a:	6191      	str	r1, [r2, #24]
 800353c:	6210      	str	r0, [r2, #32]
 800353e:	6891      	ldr	r1, [r2, #8]
 8003540:	4811      	ldr	r0, [pc, #68]	@ (8003588 <HAL_TIM_ConfigClockSource+0x15c>)
 8003542:	4001      	ands	r1, r0
 8003544:	2047      	movs	r0, #71	@ 0x47
 8003546:	4301      	orrs	r1, r0
 8003548:	6091      	str	r1, [r2, #8]
 800354a:	e7aa      	b.n	80034a2 <HAL_TIM_ConfigClockSource+0x76>
 800354c:	2610      	movs	r6, #16
 800354e:	6a15      	ldr	r5, [r2, #32]
 8003550:	6848      	ldr	r0, [r1, #4]
 8003552:	68cc      	ldr	r4, [r1, #12]
 8003554:	6a11      	ldr	r1, [r2, #32]
 8003556:	0324      	lsls	r4, r4, #12
 8003558:	43b1      	bics	r1, r6
 800355a:	6211      	str	r1, [r2, #32]
 800355c:	6991      	ldr	r1, [r2, #24]
 800355e:	4e0b      	ldr	r6, [pc, #44]	@ (800358c <HAL_TIM_ConfigClockSource+0x160>)
 8003560:	4031      	ands	r1, r6
 8003562:	430c      	orrs	r4, r1
 8003564:	21a0      	movs	r1, #160	@ 0xa0
 8003566:	438d      	bics	r5, r1
 8003568:	0101      	lsls	r1, r0, #4
 800356a:	4329      	orrs	r1, r5
 800356c:	6194      	str	r4, [r2, #24]
 800356e:	6211      	str	r1, [r2, #32]
 8003570:	6891      	ldr	r1, [r2, #8]
 8003572:	4805      	ldr	r0, [pc, #20]	@ (8003588 <HAL_TIM_ConfigClockSource+0x15c>)
 8003574:	4001      	ands	r1, r0
 8003576:	2067      	movs	r0, #103	@ 0x67
 8003578:	4301      	orrs	r1, r0
 800357a:	6091      	str	r1, [r2, #8]
 800357c:	e791      	b.n	80034a2 <HAL_TIM_ConfigClockSource+0x76>
 800357e:	46c0      	nop			@ (mov r8, r8)
 8003580:	ffce0088 	.word	0xffce0088
 8003584:	ffff00ff 	.word	0xffff00ff
 8003588:	ffcfff8f 	.word	0xffcfff8f
 800358c:	ffff0fff 	.word	0xffff0fff

08003590 <TIM_Base_SetConfig>:
 8003590:	4a27      	ldr	r2, [pc, #156]	@ (8003630 <TIM_Base_SetConfig+0xa0>)
 8003592:	b570      	push	{r4, r5, r6, lr}
 8003594:	6803      	ldr	r3, [r0, #0]
 8003596:	694e      	ldr	r6, [r1, #20]
 8003598:	688d      	ldr	r5, [r1, #8]
 800359a:	680c      	ldr	r4, [r1, #0]
 800359c:	4290      	cmp	r0, r2
 800359e:	d018      	beq.n	80035d2 <TIM_Base_SetConfig+0x42>
 80035a0:	4a24      	ldr	r2, [pc, #144]	@ (8003634 <TIM_Base_SetConfig+0xa4>)
 80035a2:	4290      	cmp	r0, r2
 80035a4:	d026      	beq.n	80035f4 <TIM_Base_SetConfig+0x64>
 80035a6:	4a24      	ldr	r2, [pc, #144]	@ (8003638 <TIM_Base_SetConfig+0xa8>)
 80035a8:	4290      	cmp	r0, r2
 80035aa:	d032      	beq.n	8003612 <TIM_Base_SetConfig+0x82>
 80035ac:	4a23      	ldr	r2, [pc, #140]	@ (800363c <TIM_Base_SetConfig+0xac>)
 80035ae:	4290      	cmp	r0, r2
 80035b0:	d034      	beq.n	800361c <TIM_Base_SetConfig+0x8c>
 80035b2:	4a23      	ldr	r2, [pc, #140]	@ (8003640 <TIM_Base_SetConfig+0xb0>)
 80035b4:	4290      	cmp	r0, r2
 80035b6:	d031      	beq.n	800361c <TIM_Base_SetConfig+0x8c>
 80035b8:	2280      	movs	r2, #128	@ 0x80
 80035ba:	4393      	bics	r3, r2
 80035bc:	62c5      	str	r5, [r0, #44]	@ 0x2c
 80035be:	431e      	orrs	r6, r3
 80035c0:	6284      	str	r4, [r0, #40]	@ 0x28
 80035c2:	2104      	movs	r1, #4
 80035c4:	6802      	ldr	r2, [r0, #0]
 80035c6:	430a      	orrs	r2, r1
 80035c8:	6002      	str	r2, [r0, #0]
 80035ca:	2201      	movs	r2, #1
 80035cc:	6142      	str	r2, [r0, #20]
 80035ce:	6006      	str	r6, [r0, #0]
 80035d0:	bd70      	pop	{r4, r5, r6, pc}
 80035d2:	2270      	movs	r2, #112	@ 0x70
 80035d4:	4393      	bics	r3, r2
 80035d6:	001a      	movs	r2, r3
 80035d8:	684b      	ldr	r3, [r1, #4]
 80035da:	431a      	orrs	r2, r3
 80035dc:	4b19      	ldr	r3, [pc, #100]	@ (8003644 <TIM_Base_SetConfig+0xb4>)
 80035de:	401a      	ands	r2, r3
 80035e0:	68cb      	ldr	r3, [r1, #12]
 80035e2:	62c5      	str	r5, [r0, #44]	@ 0x2c
 80035e4:	431a      	orrs	r2, r3
 80035e6:	2380      	movs	r3, #128	@ 0x80
 80035e8:	439a      	bics	r2, r3
 80035ea:	4316      	orrs	r6, r2
 80035ec:	6284      	str	r4, [r0, #40]	@ 0x28
 80035ee:	690a      	ldr	r2, [r1, #16]
 80035f0:	6302      	str	r2, [r0, #48]	@ 0x30
 80035f2:	e7e6      	b.n	80035c2 <TIM_Base_SetConfig+0x32>
 80035f4:	2270      	movs	r2, #112	@ 0x70
 80035f6:	4393      	bics	r3, r2
 80035f8:	001a      	movs	r2, r3
 80035fa:	684b      	ldr	r3, [r1, #4]
 80035fc:	431a      	orrs	r2, r3
 80035fe:	4b11      	ldr	r3, [pc, #68]	@ (8003644 <TIM_Base_SetConfig+0xb4>)
 8003600:	401a      	ands	r2, r3
 8003602:	68cb      	ldr	r3, [r1, #12]
 8003604:	62c5      	str	r5, [r0, #44]	@ 0x2c
 8003606:	431a      	orrs	r2, r3
 8003608:	2380      	movs	r3, #128	@ 0x80
 800360a:	439a      	bics	r2, r3
 800360c:	4316      	orrs	r6, r2
 800360e:	6284      	str	r4, [r0, #40]	@ 0x28
 8003610:	e7d7      	b.n	80035c2 <TIM_Base_SetConfig+0x32>
 8003612:	4a0c      	ldr	r2, [pc, #48]	@ (8003644 <TIM_Base_SetConfig+0xb4>)
 8003614:	4013      	ands	r3, r2
 8003616:	68ca      	ldr	r2, [r1, #12]
 8003618:	4313      	orrs	r3, r2
 800361a:	e7cd      	b.n	80035b8 <TIM_Base_SetConfig+0x28>
 800361c:	4a09      	ldr	r2, [pc, #36]	@ (8003644 <TIM_Base_SetConfig+0xb4>)
 800361e:	4013      	ands	r3, r2
 8003620:	68ca      	ldr	r2, [r1, #12]
 8003622:	62c5      	str	r5, [r0, #44]	@ 0x2c
 8003624:	4313      	orrs	r3, r2
 8003626:	2280      	movs	r2, #128	@ 0x80
 8003628:	4393      	bics	r3, r2
 800362a:	431e      	orrs	r6, r3
 800362c:	6284      	str	r4, [r0, #40]	@ 0x28
 800362e:	e7de      	b.n	80035ee <TIM_Base_SetConfig+0x5e>
 8003630:	40012c00 	.word	0x40012c00
 8003634:	40000400 	.word	0x40000400
 8003638:	40002000 	.word	0x40002000
 800363c:	40014400 	.word	0x40014400
 8003640:	40014800 	.word	0x40014800
 8003644:	fffffcff 	.word	0xfffffcff

08003648 <HAL_TIM_Base_Init>:
 8003648:	b570      	push	{r4, r5, r6, lr}
 800364a:	1e04      	subs	r4, r0, #0
 800364c:	d02a      	beq.n	80036a4 <HAL_TIM_Base_Init+0x5c>
 800364e:	233d      	movs	r3, #61	@ 0x3d
 8003650:	5cc3      	ldrb	r3, [r0, r3]
 8003652:	b2da      	uxtb	r2, r3
 8003654:	2b00      	cmp	r3, #0
 8003656:	d020      	beq.n	800369a <HAL_TIM_Base_Init+0x52>
 8003658:	2302      	movs	r3, #2
 800365a:	253d      	movs	r5, #61	@ 0x3d
 800365c:	0021      	movs	r1, r4
 800365e:	5563      	strb	r3, [r4, r5]
 8003660:	c901      	ldmia	r1!, {r0}
 8003662:	f7ff ff95 	bl	8003590 <TIM_Base_SetConfig>
 8003666:	2301      	movs	r3, #1
 8003668:	2248      	movs	r2, #72	@ 0x48
 800366a:	2000      	movs	r0, #0
 800366c:	54a3      	strb	r3, [r4, r2]
 800366e:	3a0a      	subs	r2, #10
 8003670:	54a3      	strb	r3, [r4, r2]
 8003672:	3201      	adds	r2, #1
 8003674:	54a3      	strb	r3, [r4, r2]
 8003676:	3201      	adds	r2, #1
 8003678:	54a3      	strb	r3, [r4, r2]
 800367a:	3201      	adds	r2, #1
 800367c:	54a3      	strb	r3, [r4, r2]
 800367e:	3201      	adds	r2, #1
 8003680:	54a3      	strb	r3, [r4, r2]
 8003682:	3201      	adds	r2, #1
 8003684:	54a3      	strb	r3, [r4, r2]
 8003686:	3201      	adds	r2, #1
 8003688:	54a3      	strb	r3, [r4, r2]
 800368a:	3201      	adds	r2, #1
 800368c:	54a3      	strb	r3, [r4, r2]
 800368e:	3201      	adds	r2, #1
 8003690:	54a3      	strb	r3, [r4, r2]
 8003692:	3201      	adds	r2, #1
 8003694:	54a3      	strb	r3, [r4, r2]
 8003696:	5563      	strb	r3, [r4, r5]
 8003698:	bd70      	pop	{r4, r5, r6, pc}
 800369a:	333c      	adds	r3, #60	@ 0x3c
 800369c:	54c2      	strb	r2, [r0, r3]
 800369e:	f7fe f9cd 	bl	8001a3c <HAL_TIM_Base_MspInit>
 80036a2:	e7d9      	b.n	8003658 <HAL_TIM_Base_Init+0x10>
 80036a4:	2001      	movs	r0, #1
 80036a6:	e7f7      	b.n	8003698 <HAL_TIM_Base_Init+0x50>

080036a8 <HAL_TIMEx_MasterConfigSynchronization>:
 80036a8:	233c      	movs	r3, #60	@ 0x3c
 80036aa:	b570      	push	{r4, r5, r6, lr}
 80036ac:	5cc3      	ldrb	r3, [r0, r3]
 80036ae:	2b01      	cmp	r3, #1
 80036b0:	d026      	beq.n	8003700 <HAL_TIMEx_MasterConfigSynchronization+0x58>
 80036b2:	233d      	movs	r3, #61	@ 0x3d
 80036b4:	2202      	movs	r2, #2
 80036b6:	54c2      	strb	r2, [r0, r3]
 80036b8:	6802      	ldr	r2, [r0, #0]
 80036ba:	4e12      	ldr	r6, [pc, #72]	@ (8003704 <HAL_TIMEx_MasterConfigSynchronization+0x5c>)
 80036bc:	6853      	ldr	r3, [r2, #4]
 80036be:	680d      	ldr	r5, [r1, #0]
 80036c0:	6894      	ldr	r4, [r2, #8]
 80036c2:	42b2      	cmp	r2, r6
 80036c4:	d00e      	beq.n	80036e4 <HAL_TIMEx_MasterConfigSynchronization+0x3c>
 80036c6:	2670      	movs	r6, #112	@ 0x70
 80036c8:	43b3      	bics	r3, r6
 80036ca:	432b      	orrs	r3, r5
 80036cc:	6053      	str	r3, [r2, #4]
 80036ce:	4b0e      	ldr	r3, [pc, #56]	@ (8003708 <HAL_TIMEx_MasterConfigSynchronization+0x60>)
 80036d0:	429a      	cmp	r2, r3
 80036d2:	d00f      	beq.n	80036f4 <HAL_TIMEx_MasterConfigSynchronization+0x4c>
 80036d4:	233d      	movs	r3, #61	@ 0x3d
 80036d6:	2201      	movs	r2, #1
 80036d8:	54c2      	strb	r2, [r0, r3]
 80036da:	2200      	movs	r2, #0
 80036dc:	3b01      	subs	r3, #1
 80036de:	54c2      	strb	r2, [r0, r3]
 80036e0:	2000      	movs	r0, #0
 80036e2:	bd70      	pop	{r4, r5, r6, pc}
 80036e4:	4e09      	ldr	r6, [pc, #36]	@ (800370c <HAL_TIMEx_MasterConfigSynchronization+0x64>)
 80036e6:	4033      	ands	r3, r6
 80036e8:	684e      	ldr	r6, [r1, #4]
 80036ea:	4333      	orrs	r3, r6
 80036ec:	2670      	movs	r6, #112	@ 0x70
 80036ee:	43b3      	bics	r3, r6
 80036f0:	431d      	orrs	r5, r3
 80036f2:	6055      	str	r5, [r2, #4]
 80036f4:	2380      	movs	r3, #128	@ 0x80
 80036f6:	439c      	bics	r4, r3
 80036f8:	688b      	ldr	r3, [r1, #8]
 80036fa:	431c      	orrs	r4, r3
 80036fc:	6094      	str	r4, [r2, #8]
 80036fe:	e7e9      	b.n	80036d4 <HAL_TIMEx_MasterConfigSynchronization+0x2c>
 8003700:	2002      	movs	r0, #2
 8003702:	e7ee      	b.n	80036e2 <HAL_TIMEx_MasterConfigSynchronization+0x3a>
 8003704:	40012c00 	.word	0x40012c00
 8003708:	40000400 	.word	0x40000400
 800370c:	ff0fffff 	.word	0xff0fffff

08003710 <memset>:
 8003710:	0003      	movs	r3, r0
 8003712:	1882      	adds	r2, r0, r2
 8003714:	4293      	cmp	r3, r2
 8003716:	d100      	bne.n	800371a <memset+0xa>
 8003718:	4770      	bx	lr
 800371a:	7019      	strb	r1, [r3, #0]
 800371c:	3301      	adds	r3, #1
 800371e:	e7f9      	b.n	8003714 <memset+0x4>

08003720 <__errno>:
 8003720:	4b01      	ldr	r3, [pc, #4]	@ (8003728 <__errno+0x8>)
 8003722:	6818      	ldr	r0, [r3, #0]
 8003724:	4770      	bx	lr
 8003726:	46c0      	nop			@ (mov r8, r8)
 8003728:	20000010 	.word	0x20000010

0800372c <__libc_init_array>:
 800372c:	b570      	push	{r4, r5, r6, lr}
 800372e:	2600      	movs	r6, #0
 8003730:	4c0c      	ldr	r4, [pc, #48]	@ (8003764 <__libc_init_array+0x38>)
 8003732:	4d0d      	ldr	r5, [pc, #52]	@ (8003768 <__libc_init_array+0x3c>)
 8003734:	1b64      	subs	r4, r4, r5
 8003736:	10a4      	asrs	r4, r4, #2
 8003738:	42a6      	cmp	r6, r4
 800373a:	d109      	bne.n	8003750 <__libc_init_array+0x24>
 800373c:	2600      	movs	r6, #0
 800373e:	f000 f873 	bl	8003828 <_init>
 8003742:	4c0a      	ldr	r4, [pc, #40]	@ (800376c <__libc_init_array+0x40>)
 8003744:	4d0a      	ldr	r5, [pc, #40]	@ (8003770 <__libc_init_array+0x44>)
 8003746:	1b64      	subs	r4, r4, r5
 8003748:	10a4      	asrs	r4, r4, #2
 800374a:	42a6      	cmp	r6, r4
 800374c:	d105      	bne.n	800375a <__libc_init_array+0x2e>
 800374e:	bd70      	pop	{r4, r5, r6, pc}
 8003750:	00b3      	lsls	r3, r6, #2
 8003752:	58eb      	ldr	r3, [r5, r3]
 8003754:	4798      	blx	r3
 8003756:	3601      	adds	r6, #1
 8003758:	e7ee      	b.n	8003738 <__libc_init_array+0xc>
 800375a:	00b3      	lsls	r3, r6, #2
 800375c:	58eb      	ldr	r3, [r5, r3]
 800375e:	4798      	blx	r3
 8003760:	3601      	adds	r6, #1
 8003762:	e7f2      	b.n	800374a <__libc_init_array+0x1e>
 8003764:	080039cc 	.word	0x080039cc
 8003768:	080039cc 	.word	0x080039cc
 800376c:	080039d0 	.word	0x080039d0
 8003770:	080039cc 	.word	0x080039cc

08003774 <abort>:
 8003774:	2006      	movs	r0, #6
 8003776:	b510      	push	{r4, lr}
 8003778:	f000 f82c 	bl	80037d4 <raise>
 800377c:	2001      	movs	r0, #1
 800377e:	f7fe f9a9 	bl	8001ad4 <_exit>

08003782 <_raise_r>:
 8003782:	b570      	push	{r4, r5, r6, lr}
 8003784:	0004      	movs	r4, r0
 8003786:	000d      	movs	r5, r1
 8003788:	291f      	cmp	r1, #31
 800378a:	d904      	bls.n	8003796 <_raise_r+0x14>
 800378c:	2316      	movs	r3, #22
 800378e:	6003      	str	r3, [r0, #0]
 8003790:	2001      	movs	r0, #1
 8003792:	4240      	negs	r0, r0
 8003794:	bd70      	pop	{r4, r5, r6, pc}
 8003796:	6bc3      	ldr	r3, [r0, #60]	@ 0x3c
 8003798:	2b00      	cmp	r3, #0
 800379a:	d004      	beq.n	80037a6 <_raise_r+0x24>
 800379c:	008a      	lsls	r2, r1, #2
 800379e:	189b      	adds	r3, r3, r2
 80037a0:	681a      	ldr	r2, [r3, #0]
 80037a2:	2a00      	cmp	r2, #0
 80037a4:	d108      	bne.n	80037b8 <_raise_r+0x36>
 80037a6:	0020      	movs	r0, r4
 80037a8:	f000 f830 	bl	800380c <_getpid_r>
 80037ac:	002a      	movs	r2, r5
 80037ae:	0001      	movs	r1, r0
 80037b0:	0020      	movs	r0, r4
 80037b2:	f000 f819 	bl	80037e8 <_kill_r>
 80037b6:	e7ed      	b.n	8003794 <_raise_r+0x12>
 80037b8:	2a01      	cmp	r2, #1
 80037ba:	d009      	beq.n	80037d0 <_raise_r+0x4e>
 80037bc:	1c51      	adds	r1, r2, #1
 80037be:	d103      	bne.n	80037c8 <_raise_r+0x46>
 80037c0:	2316      	movs	r3, #22
 80037c2:	6003      	str	r3, [r0, #0]
 80037c4:	2001      	movs	r0, #1
 80037c6:	e7e5      	b.n	8003794 <_raise_r+0x12>
 80037c8:	2100      	movs	r1, #0
 80037ca:	0028      	movs	r0, r5
 80037cc:	6019      	str	r1, [r3, #0]
 80037ce:	4790      	blx	r2
 80037d0:	2000      	movs	r0, #0
 80037d2:	e7df      	b.n	8003794 <_raise_r+0x12>

080037d4 <raise>:
 80037d4:	b510      	push	{r4, lr}
 80037d6:	4b03      	ldr	r3, [pc, #12]	@ (80037e4 <raise+0x10>)
 80037d8:	0001      	movs	r1, r0
 80037da:	6818      	ldr	r0, [r3, #0]
 80037dc:	f7ff ffd1 	bl	8003782 <_raise_r>
 80037e0:	bd10      	pop	{r4, pc}
 80037e2:	46c0      	nop			@ (mov r8, r8)
 80037e4:	20000010 	.word	0x20000010

080037e8 <_kill_r>:
 80037e8:	2300      	movs	r3, #0
 80037ea:	b570      	push	{r4, r5, r6, lr}
 80037ec:	4d06      	ldr	r5, [pc, #24]	@ (8003808 <_kill_r+0x20>)
 80037ee:	0004      	movs	r4, r0
 80037f0:	0008      	movs	r0, r1
 80037f2:	0011      	movs	r1, r2
 80037f4:	602b      	str	r3, [r5, #0]
 80037f6:	f7fe f965 	bl	8001ac4 <_kill>
 80037fa:	1c43      	adds	r3, r0, #1
 80037fc:	d103      	bne.n	8003806 <_kill_r+0x1e>
 80037fe:	682b      	ldr	r3, [r5, #0]
 8003800:	2b00      	cmp	r3, #0
 8003802:	d000      	beq.n	8003806 <_kill_r+0x1e>
 8003804:	6023      	str	r3, [r4, #0]
 8003806:	bd70      	pop	{r4, r5, r6, pc}
 8003808:	200002a8 	.word	0x200002a8

0800380c <_getpid_r>:
 800380c:	b510      	push	{r4, lr}
 800380e:	f7fe f957 	bl	8001ac0 <_getpid>
 8003812:	bd10      	pop	{r4, pc}

08003814 <memcpy>:
 8003814:	2300      	movs	r3, #0
 8003816:	b510      	push	{r4, lr}
 8003818:	429a      	cmp	r2, r3
 800381a:	d100      	bne.n	800381e <memcpy+0xa>
 800381c:	bd10      	pop	{r4, pc}
 800381e:	5ccc      	ldrb	r4, [r1, r3]
 8003820:	54c4      	strb	r4, [r0, r3]
 8003822:	3301      	adds	r3, #1
 8003824:	e7f8      	b.n	8003818 <memcpy+0x4>
	...

08003828 <_init>:
 8003828:	b5f8      	push	{r3, r4, r5, r6, r7, lr}
 800382a:	46c0      	nop			@ (mov r8, r8)
 800382c:	bcf8      	pop	{r3, r4, r5, r6, r7}
 800382e:	bc08      	pop	{r3}
 8003830:	469e      	mov	lr, r3
 8003832:	4770      	bx	lr

08003834 <_fini>:
 8003834:	b5f8      	push	{r3, r4, r5, r6, r7, lr}
 8003836:	46c0      	nop			@ (mov r8, r8)
 8003838:	bcf8      	pop	{r3, r4, r5, r6, r7}
 800383a:	bc08      	pop	{r3}
 800383c:	469e      	mov	lr, r3
 800383e:	4770      	bx	lr
